---
triple:          'arm64-apple-darwin'
binary-path:     'tools/format/json_formatter.cgi'
relocations:
  - { offset: 0x105, size: 0x8, addend: 0x0, symName: __ZN9formatter6formatER10TextJsonInR7JsonOutib, symObjAddr: 0x0, symBinAddr: 0x1000007D0, symSize: 0x52C }
  - { offset: 0x960, size: 0x8, addend: 0x0, symName: __ZL17format_collectionR10TextJsonInR7JsonOutiRKNSt3__18functionIFvS0_S2_ibEEEb, symObjAddr: 0x52C, symBinAddr: 0x100000CFC, symSize: 0xEC }
  - { offset: 0x9DC, size: 0x8, addend: 0x0, symName: __ZNSt3__124__put_character_sequenceB8ne200100IcNS_11char_traitsIcEEEERNS_13basic_ostreamIT_T0_EES7_PKS4_m, symObjAddr: 0xCB0, symBinAddr: 0x100001480, symSize: 0x168 }
  - { offset: 0xB23, size: 0x8, addend: 0x0, symName: __ZN7JsonOut5writeIbLi0EEEvT_, symObjAddr: 0x958, symBinAddr: 0x100001128, symSize: 0x48 }
  - { offset: 0xB34, size: 0x8, addend: 0x0, symName: __ZN7JsonOut5writeIxLi0EEEvT_, symObjAddr: 0x910, symBinAddr: 0x1000010E0, symSize: 0x48 }
  - { offset: 0xB45, size: 0x8, addend: 0x0, symName: __ZN7JsonOut5writeIyLi0EEEvT_, symObjAddr: 0x8C8, symBinAddr: 0x100001098, symSize: 0x48 }
  - { offset: 0xB68, size: 0x8, addend: 0x0, symName: __ZNKSt3__18functionIFvR10TextJsonInR7JsonOutibEEclES2_S4_ib, symObjAddr: 0x9A0, symBinAddr: 0x100001170, symSize: 0x40 }
  - { offset: 0xB95, size: 0x8, addend: 0x0, symName: __ZNSt3__125__throw_bad_function_callB8ne200100Ev, symObjAddr: 0x9E0, symBinAddr: 0x1000011B0, symSize: 0x34 }
  - { offset: 0xB9F, size: 0x8, addend: 0x0, symName: __ZL11write_arrayR10TextJsonInR7JsonOutib, symObjAddr: 0x618, symBinAddr: 0x100000DE8, symSize: 0x70 }
  - { offset: 0xBEE, size: 0x8, addend: 0x0, symName: __ZL12write_objectR10TextJsonInR7JsonOutib, symObjAddr: 0x688, symBinAddr: 0x100000E58, symSize: 0x240 }
  - { offset: 0xFD5, size: 0x8, addend: 0x0, symName: __ZN13TextJsonArrayD2Ev, symObjAddr: 0xA3C, symBinAddr: 0x10000120C, symSize: 0x38 }
  - { offset: 0x10AD, size: 0x8, addend: 0x0, symName: __ZNSt3__125__throw_bad_function_callB8ne200100Ev, symObjAddr: 0x9E0, symBinAddr: 0x1000011B0, symSize: 0x34 }
  - { offset: 0x10FA, size: 0x8, addend: 0x0, symName: __ZNSt3__117bad_function_callD1Ev, symObjAddr: 0xA14, symBinAddr: 0x1000011E4, symSize: 0x4 }
  - { offset: 0x110F, size: 0x8, addend: 0x0, symName: __ZNSt3__117bad_function_callD1Ev, symObjAddr: 0xA14, symBinAddr: 0x1000011E4, symSize: 0x4 }
  - { offset: 0x1126, size: 0x8, addend: 0x0, symName: __ZNSt3__117bad_function_callD0Ev, symObjAddr: 0xA18, symBinAddr: 0x1000011E8, symSize: 0x14 }
  - { offset: 0x11EB, size: 0x8, addend: 0x0, symName: __ZNSt3__112basic_stringIcNS_11char_traitsIcEENS_9allocatorIcEEEC2B8ne200100ILi0EEEPKc, symObjAddr: 0xA74, symBinAddr: 0x100001244, symSize: 0xA4 }
  - { offset: 0x131C, size: 0x8, addend: 0x0, symName: __ZNSt3__112basic_stringIcNS_11char_traitsIcEENS_9allocatorIcEEE20__throw_length_errorB8ne200100Ev, symObjAddr: 0xB18, symBinAddr: 0x1000012E8, symSize: 0x14 }
  - { offset: 0x132D, size: 0x8, addend: 0x0, symName: __ZNSt3__112basic_stringIcNS_11char_traitsIcEENS_9allocatorIcEEE20__throw_length_errorB8ne200100Ev, symObjAddr: 0xB18, symBinAddr: 0x1000012E8, symSize: 0x14 }
  - { offset: 0x1342, size: 0x8, addend: 0x0, symName: __ZNSt3__120__throw_length_errorB8ne200100EPKc, symObjAddr: 0xB2C, symBinAddr: 0x1000012FC, symSize: 0x50 }
  - { offset: 0x134C, size: 0x8, addend: 0x0, symName: __ZNSt3__120__throw_length_errorB8ne200100EPKc, symObjAddr: 0xB2C, symBinAddr: 0x1000012FC, symSize: 0x50 }
  - { offset: 0x136B, size: 0x8, addend: 0x0, symName: __ZNSt12length_errorC1B8ne200100EPKc, symObjAddr: 0xB7C, symBinAddr: 0x10000134C, symSize: 0x24 }
  - { offset: 0x1397, size: 0x8, addend: 0x0, symName: __ZNSt3__110__function6__funcIPFvR10TextJsonInR7JsonOutibENS_9allocatorIS7_EES6_ED1Ev, symObjAddr: 0xBA0, symBinAddr: 0x100001370, symSize: 0x4 }
  - { offset: 0x13A8, size: 0x8, addend: 0x0, symName: __ZNSt3__110__function6__funcIPFvR10TextJsonInR7JsonOutibENS_9allocatorIS7_EES6_ED0Ev, symObjAddr: 0xBA4, symBinAddr: 0x100001374, symSize: 0x4 }
  - { offset: 0x13E3, size: 0x8, addend: 0x0, symName: __ZNKSt3__110__function6__funcIPFvR10TextJsonInR7JsonOutibENS_9allocatorIS7_EES6_E7__cloneEv, symObjAddr: 0xBA8, symBinAddr: 0x100001378, symSize: 0x38 }
  - { offset: 0x14A2, size: 0x8, addend: 0x0, symName: __ZNKSt3__110__function6__funcIPFvR10TextJsonInR7JsonOutibENS_9allocatorIS7_EES6_E7__cloneEPNS0_6__baseIS6_EE, symObjAddr: 0xBE0, symBinAddr: 0x1000013B0, symSize: 0x18 }
  - { offset: 0x14B7, size: 0x8, addend: 0x0, symName: __ZNKSt3__110__function6__funcIPFvR10TextJsonInR7JsonOutibENS_9allocatorIS7_EES6_E7__cloneEPNS0_6__baseIS6_EE, symObjAddr: 0xBE0, symBinAddr: 0x1000013B0, symSize: 0x18 }
  - { offset: 0x14CC, size: 0x8, addend: 0x0, symName: __ZNKSt3__110__function6__funcIPFvR10TextJsonInR7JsonOutibENS_9allocatorIS7_EES6_E7__cloneEPNS0_6__baseIS6_EE, symObjAddr: 0xBE0, symBinAddr: 0x1000013B0, symSize: 0x18 }
  - { offset: 0x150A, size: 0x8, addend: 0x0, symName: __ZNSt3__110__function6__funcIPFvR10TextJsonInR7JsonOutibENS_9allocatorIS7_EES6_E7destroyEv, symObjAddr: 0xBF8, symBinAddr: 0x1000013C8, symSize: 0x4 }
  - { offset: 0x152D, size: 0x8, addend: 0x0, symName: __ZNSt3__110__function6__funcIPFvR10TextJsonInR7JsonOutibENS_9allocatorIS7_EES6_E18destroy_deallocateEv, symObjAddr: 0xBFC, symBinAddr: 0x1000013CC, symSize: 0x4 }
  - { offset: 0x1542, size: 0x8, addend: 0x0, symName: __ZNSt3__110__function6__funcIPFvR10TextJsonInR7JsonOutibENS_9allocatorIS7_EES6_E18destroy_deallocateEv, symObjAddr: 0xBFC, symBinAddr: 0x1000013CC, symSize: 0x4 }
  - { offset: 0x1557, size: 0x8, addend: 0x0, symName: __ZNSt3__110__function6__funcIPFvR10TextJsonInR7JsonOutibENS_9allocatorIS7_EES6_E18destroy_deallocateEv, symObjAddr: 0xBFC, symBinAddr: 0x1000013CC, symSize: 0x4 }
  - { offset: 0x156B, size: 0x8, addend: 0x0, symName: __ZNSt3__110__function6__funcIPFvR10TextJsonInR7JsonOutibENS_9allocatorIS7_EES6_E18destroy_deallocateEv, symObjAddr: 0xBFC, symBinAddr: 0x1000013CC, symSize: 0x4 }
  - { offset: 0x1596, size: 0x8, addend: 0x0, symName: __ZNSt3__110__function6__funcIPFvR10TextJsonInR7JsonOutibENS_9allocatorIS7_EES6_EclES3_S5_OiOb, symObjAddr: 0xC00, symBinAddr: 0x1000013D0, symSize: 0x1C }
  - { offset: 0x1608, size: 0x8, addend: 0x0, symName: __ZNKSt3__110__function6__funcIPFvR10TextJsonInR7JsonOutibENS_9allocatorIS7_EES6_E6targetERKSt9type_info, symObjAddr: 0xC1C, symBinAddr: 0x1000013EC, symSize: 0x3C }
  - { offset: 0x1627, size: 0x8, addend: 0x0, symName: __ZNKSt9type_infoeqB8ne200100ERKS_, symObjAddr: 0xC64, symBinAddr: 0x100001434, symSize: 0x4C }
  - { offset: 0x167C, size: 0x8, addend: 0x0, symName: __ZNKSt3__110__function6__funcIPFvR10TextJsonInR7JsonOutibENS_9allocatorIS7_EES6_E11target_typeEv, symObjAddr: 0xC58, symBinAddr: 0x100001428, symSize: 0xC }
  - { offset: 0x16F4, size: 0x8, addend: 0x0, symName: __ZNSt3__116__pad_and_outputB8ne200100IcNS_11char_traitsIcEEEENS_19ostreambuf_iteratorIT_T0_EES6_PKS4_S8_S8_RNS_8ios_baseES4_, symObjAddr: 0xE18, symBinAddr: 0x1000015E8, symSize: 0x13C }
  - { offset: 0x195E, size: 0x8, addend: 0x0, symName: __ZNSt3__112basic_stringIcNS_11char_traitsIcEENS_9allocatorIcEEEC2B8ne200100Emc, symObjAddr: 0xF54, symBinAddr: 0x100001724, symSize: 0x9C }
  - { offset: 0x1AB2, size: 0x8, addend: 0x0, symName: __GLOBAL__sub_I_format.cpp, symObjAddr: 0x1114, symBinAddr: 0x1000017C0, symSize: 0x11C }
  - { offset: 0x1DED, size: 0x8, addend: 0x0, symName: _main, symObjAddr: 0x0, symBinAddr: 0x1000018DC, symSize: 0xA48 }
  - { offset: 0x3C9D, size: 0x8, addend: 0x0, symName: __ZNSt3__118basic_stringstreamIcNS_11char_traitsIcEENS_9allocatorIcEEEC1B8ne200100Ev, symObjAddr: 0xA48, symBinAddr: 0x100002324, symSize: 0xC0 }
  - { offset: 0x3D42, size: 0x8, addend: 0x0, symName: __Z14initializePostRNSt3__13mapINS_12basic_stringIcNS_11char_traitsIcEENS_9allocatorIcEEEES6_NS_4lessIS6_EENS4_INS_4pairIKS6_S6_EEEEEE, symObjAddr: 0xCEC, symBinAddr: 0x1000025C8, symSize: 0x380 }
  - { offset: 0x4A1C, size: 0x8, addend: 0x0, symName: __ZNSt3__115basic_stringbufIcNS_11char_traitsIcEENS_9allocatorIcEEEC2B8ne200100Ej, symObjAddr: 0x2C2C, symBinAddr: 0x1000043CC, symSize: 0xA0 }
  - { offset: 0x4A26, size: 0x8, addend: 0x0, symName: __ZNSt3__16__treeINS_12__value_typeINS_12basic_stringIcNS_11char_traitsIcEENS_9allocatorIcEEEES7_EENS_19__map_value_compareIS7_S8_NS_4lessIS7_EELb1EEENS5_IS8_EEE25__emplace_unique_key_argsIS7_JRKNS_21piecewise_construct_tENS_5tupleIJOS7_EEENSJ_IJEEEEEENS_4pairINS_15__tree_iteratorIS8_PNS_11__tree_nodeIS8_PvEElEEbEERKT_DpOT0_, symObjAddr: 0x2EB8, symBinAddr: 0x100004658, symSize: 0x9C }
  - { offset: 0x4B7F, size: 0x8, addend: 0x0, symName: __ZNSt3__114basic_ifstreamIcNS_11char_traitsIcEEEC1ERKNS_12basic_stringIcS2_NS_9allocatorIcEEEEj, symObjAddr: 0xB98, symBinAddr: 0x100002474, symSize: 0xF8 }
  - { offset: 0x4CD5, size: 0x8, addend: 0x0, symName: __ZNSt3__113basic_filebufIcNS_11char_traitsIcEEE5closeEv, symObjAddr: 0x14C8, symBinAddr: 0x100002D94, symSize: 0x84 }
  - { offset: 0x4D58, size: 0x8, addend: 0x0, symName: __ZNSt3__113basic_filebufIcNS_11char_traitsIcEEED2Ev, symObjAddr: 0x143C, symBinAddr: 0x100002D08, symSize: 0x8C }
  - { offset: 0x4D8C, size: 0x8, addend: 0x0, symName: __ZNSt3__112basic_stringIcNS_11char_traitsIcEENS_9allocatorIcEEE25__init_copy_ctor_externalEPKcm, symObjAddr: 0x2A80, symBinAddr: 0x10000434C, symSize: 0x80 }
  - { offset: 0x4E7D, size: 0x8, addend: 0x0, symName: __ZNSt3__115basic_stringbufIcNS_11char_traitsIcEENS_9allocatorIcEEE15__init_buf_ptrsB8ne200100Ev, symObjAddr: 0x2CCC, symBinAddr: 0x10000446C, symSize: 0x104 }
  - { offset: 0x4FB9, size: 0x8, addend: 0x0, symName: __ZNSt3__16__treeINS_12__value_typeINS_12basic_stringIcNS_11char_traitsIcEENS_9allocatorIcEEEES7_EENS_19__map_value_compareIS7_S8_NS_4lessIS7_EELb1EEENS5_IS8_EEE7destroyEPNS_11__tree_nodeIS8_PvEE, symObjAddr: 0x21B0, symBinAddr: 0x100003A7C, symSize: 0x48 }
  - { offset: 0x505C, size: 0x8, addend: 0x0, symName: __ZNKSt3__115basic_stringbufIcNS_11char_traitsIcEENS_9allocatorIcEEE3strEv, symObjAddr: 0x2DD0, symBinAddr: 0x100004570, symSize: 0x4C }
  - { offset: 0x520D, size: 0x8, addend: 0x0, symName: __ZNSt3__1eqB8ne200100IcNS_11char_traitsIcEENS_9allocatorIcEEEEbRKNS_12basic_stringIT_T0_T1_EESB_, symObjAddr: 0x107C, symBinAddr: 0x100002948, symSize: 0x6C }
  - { offset: 0x5222, size: 0x8, addend: 0x0, symName: __ZNSt3__1eqB8ne200100IcNS_11char_traitsIcEENS_9allocatorIcEEEEbRKNS_12basic_stringIT_T0_T1_EESB_, symObjAddr: 0x107C, symBinAddr: 0x100002948, symSize: 0x6C }
  - { offset: 0x5237, size: 0x8, addend: 0x0, symName: __ZNSt3__1eqB8ne200100IcNS_11char_traitsIcEENS_9allocatorIcEEEEbRKNS_12basic_stringIT_T0_T1_EESB_, symObjAddr: 0x107C, symBinAddr: 0x100002948, symSize: 0x6C }
  - { offset: 0x52ED, size: 0x8, addend: 0x0, symName: __ZNSt3__14endlB8ne200100IcNS_11char_traitsIcEEEERNS_13basic_ostreamIT_T0_EES7_, symObjAddr: 0xB08, symBinAddr: 0x1000023E4, symSize: 0x90 }
  - { offset: 0x5342, size: 0x8, addend: 0x0, symName: __ZNSt3__114basic_ofstreamIcNS_11char_traitsIcEEEC1ERKNS_12basic_stringIcS2_NS_9allocatorIcEEEEj, symObjAddr: 0x10E8, symBinAddr: 0x1000029B4, symSize: 0xFC }
  - { offset: 0x5498, size: 0x8, addend: 0x0, symName: __ZNSt3__114basic_ofstreamIcNS_11char_traitsIcEEE5closeEv, symObjAddr: 0x11E4, symBinAddr: 0x100002AB0, symSize: 0x48 }
  - { offset: 0x54E2, size: 0x8, addend: 0x0, symName: __ZNSt3__114basic_ofstreamIcNS_11char_traitsIcEEED1Ev, symObjAddr: 0x122C, symBinAddr: 0x100002AF8, symSize: 0x5C }
  - { offset: 0x552A, size: 0x8, addend: 0x0, symName: __ZNSt3__114basic_ifstreamIcNS_11char_traitsIcEEED1Ev, symObjAddr: 0xC90, symBinAddr: 0x10000256C, symSize: 0x5C }
  - { offset: 0x5579, size: 0x8, addend: 0x0, symName: __ZNSt3__110shared_ptrINS_12basic_stringIcNS_11char_traitsIcEENS_9allocatorIcEEEEED2B8ne200100Ev, symObjAddr: 0x2358, symBinAddr: 0x100003C24, symSize: 0x50 }
  - { offset: 0x55D5, size: 0x8, addend: 0x0, symName: __ZNSt3__118basic_stringstreamIcNS_11char_traitsIcEENS_9allocatorIcEEED1Ev, symObjAddr: 0x1288, symBinAddr: 0x100002B54, symSize: 0x94 }
  - { offset: 0x56FE, size: 0x8, addend: 0x0, symName: __ZNSt3__115basic_stringbufIcNS_11char_traitsIcEENS_9allocatorIcEEEC2B8ne200100Ej, symObjAddr: 0x2C2C, symBinAddr: 0x1000043CC, symSize: 0xA0 }
  - { offset: 0x57F4, size: 0x8, addend: 0x0, symName: __ZNSt3__113basic_filebufIcNS_11char_traitsIcEEEC2Ev, symObjAddr: 0x3584, symBinAddr: 0x1000049E4, symSize: 0x154 }
  - { offset: 0x5887, size: 0x8, addend: 0x0, symName: __ZNSt3__113basic_filebufIcNS_11char_traitsIcEEE4openEPKcj, symObjAddr: 0x36D8, symBinAddr: 0x100004B38, symSize: 0x130 }
  - { offset: 0x590C, size: 0x8, addend: 0x0, symName: __Z9urlDecodeRKNSt3__112basic_stringIcNS_11char_traitsIcEENS_9allocatorIcEEEE, symObjAddr: 0x20AC, symBinAddr: 0x100003978, symSize: 0x104 }
  - { offset: 0x5A91, size: 0x8, addend: 0x0, symName: __ZTv0_n24_NSt3__114basic_ifstreamIcNS_11char_traitsIcEEED1Ev, symObjAddr: 0x131C, symBinAddr: 0x100002BE8, symSize: 0x5C }
  - { offset: 0x5AE9, size: 0x8, addend: 0x0, symName: __ZNSt3__114basic_ifstreamIcNS_11char_traitsIcEEED0Ev, symObjAddr: 0x1378, symBinAddr: 0x100002C44, symSize: 0x5C }
  - { offset: 0x5B4C, size: 0x8, addend: 0x0, symName: __ZTv0_n24_NSt3__114basic_ifstreamIcNS_11char_traitsIcEEED0Ev, symObjAddr: 0x13D4, symBinAddr: 0x100002CA0, symSize: 0x64 }
  - { offset: 0x5BB9, size: 0x8, addend: 0x0, symName: __ZNSt3__113basic_filebufIcNS_11char_traitsIcEEED1Ev, symObjAddr: 0x1438, symBinAddr: 0x100002D04, symSize: 0x4 }
  - { offset: 0x5BCE, size: 0x8, addend: 0x0, symName: __ZNSt3__113basic_filebufIcNS_11char_traitsIcEEED1Ev, symObjAddr: 0x1438, symBinAddr: 0x100002D04, symSize: 0x4 }
  - { offset: 0x5BF1, size: 0x8, addend: 0x0, symName: __ZNSt3__113basic_filebufIcNS_11char_traitsIcEEED0Ev, symObjAddr: 0x154C, symBinAddr: 0x100002E18, symSize: 0x14 }
  - { offset: 0x5C37, size: 0x8, addend: 0x0, symName: __ZNSt3__113basic_filebufIcNS_11char_traitsIcEEE5imbueERKNS_6localeE, symObjAddr: 0x1560, symBinAddr: 0x100002E2C, symSize: 0xEC }
  - { offset: 0x5C9E, size: 0x8, addend: 0x0, symName: __ZNSt3__113basic_filebufIcNS_11char_traitsIcEEE6setbufEPcl, symObjAddr: 0x164C, symBinAddr: 0x100002F18, symSize: 0x114 }
  - { offset: 0x5CD2, size: 0x8, addend: 0x0, symName: __ZNSt3__113basic_filebufIcNS_11char_traitsIcEEE25__request_unbuffered_modeB8ne200100EPcl, symObjAddr: 0x1FC8, symBinAddr: 0x100003894, symSize: 0x50 }
  - { offset: 0x5D0F, size: 0x8, addend: 0x0, symName: __ZNSt3__113basic_filebufIcNS_11char_traitsIcEEE7seekoffExNS_8ios_base7seekdirEj, symObjAddr: 0x1760, symBinAddr: 0x10000302C, symSize: 0x100 }
  - { offset: 0x5DE6, size: 0x8, addend: 0x0, symName: __ZNSt3__113basic_filebufIcNS_11char_traitsIcEEE7seekposENS_4fposI11__mbstate_tEEj, symObjAddr: 0x1860, symBinAddr: 0x10000312C, symSize: 0xB0 }
  - { offset: 0x5E00, size: 0x8, addend: 0x0, symName: __ZNSt3__116__throw_bad_castB8ne200100Ev, symObjAddr: 0x2018, symBinAddr: 0x1000038E4, symSize: 0x28 }
  - { offset: 0x5E11, size: 0x8, addend: 0x0, symName: __ZNSt3__113basic_filebufIcNS_11char_traitsIcEEE7seekposENS_4fposI11__mbstate_tEEj, symObjAddr: 0x1860, symBinAddr: 0x10000312C, symSize: 0xB0 }
  - { offset: 0x5E9C, size: 0x8, addend: 0x0, symName: __ZNSt3__113basic_filebufIcNS_11char_traitsIcEEE4syncEv, symObjAddr: 0x1910, symBinAddr: 0x1000031DC, symSize: 0x240 }
  - { offset: 0x5FCE, size: 0x8, addend: 0x0, symName: __ZNSt3__113basic_filebufIcNS_11char_traitsIcEEE9underflowEv, symObjAddr: 0x1B50, symBinAddr: 0x10000341C, symSize: 0x26C }
  - { offset: 0x5FF8, size: 0x8, addend: 0x0, symName: __ZNSt3__113basic_filebufIcNS_11char_traitsIcEEE9underflowEv, symObjAddr: 0x1B50, symBinAddr: 0x10000341C, symSize: 0x26C }
  - { offset: 0x61AC, size: 0x8, addend: 0x0, symName: __ZNSt3__113basic_filebufIcNS_11char_traitsIcEEE9pbackfailEi, symObjAddr: 0x1DBC, symBinAddr: 0x100003688, symSize: 0x5C }
  - { offset: 0x61BC, size: 0x8, addend: 0x0, symName: __ZNSt3__113basic_filebufIcNS_11char_traitsIcEEE9pbackfailEi, symObjAddr: 0x1DBC, symBinAddr: 0x100003688, symSize: 0x5C }
  - { offset: 0x6231, size: 0x8, addend: 0x0, symName: __ZNSt3__113basic_filebufIcNS_11char_traitsIcEEE8overflowEi, symObjAddr: 0x1E18, symBinAddr: 0x1000036E4, symSize: 0x1B0 }
  - { offset: 0x634C, size: 0x8, addend: 0x0, symName: __ZNSt3__113basic_filebufIcNS_11char_traitsIcEEE25__request_unbuffered_modeB8ne200100EPcl, symObjAddr: 0x1FC8, symBinAddr: 0x100003894, symSize: 0x50 }
  - { offset: 0x6356, size: 0x8, addend: 0x0, symName: __ZNSt3__113basic_filebufIcNS_11char_traitsIcEEE12__write_modeEv, symObjAddr: 0x2040, symBinAddr: 0x10000390C, symSize: 0x6C }
  - { offset: 0x63EF, size: 0x8, addend: 0x0, symName: __ZNSt3__112__destroy_atB8ne200100INS_4pairIKNS_12basic_stringIcNS_11char_traitsIcEENS_9allocatorIcEEEES7_EELi0EEEvPT_, symObjAddr: 0x21F8, symBinAddr: 0x100003AC4, symSize: 0x44 }
  - { offset: 0x6571, size: 0x8, addend: 0x0, symName: __ZTv0_n24_NSt3__114basic_ofstreamIcNS_11char_traitsIcEEED1Ev, symObjAddr: 0x223C, symBinAddr: 0x100003B08, symSize: 0x5C }
  - { offset: 0x65C9, size: 0x8, addend: 0x0, symName: __ZNSt3__114basic_ofstreamIcNS_11char_traitsIcEEED0Ev, symObjAddr: 0x2298, symBinAddr: 0x100003B64, symSize: 0x5C }
  - { offset: 0x662C, size: 0x8, addend: 0x0, symName: __ZTv0_n24_NSt3__114basic_ofstreamIcNS_11char_traitsIcEEED0Ev, symObjAddr: 0x22F4, symBinAddr: 0x100003BC0, symSize: 0x64 }
  - { offset: 0x6699, size: 0x8, addend: 0x0, symName: __ZThn16_NSt3__118basic_stringstreamIcNS_11char_traitsIcEENS_9allocatorIcEEED1Ev, symObjAddr: 0x23A8, symBinAddr: 0x100003C74, symSize: 0x98 }
  - { offset: 0x67A8, size: 0x8, addend: 0x0, symName: __ZTv0_n24_NSt3__118basic_stringstreamIcNS_11char_traitsIcEENS_9allocatorIcEEED1Ev, symObjAddr: 0x2440, symBinAddr: 0x100003D0C, symSize: 0x94 }
  - { offset: 0x68B7, size: 0x8, addend: 0x0, symName: __ZNSt3__118basic_stringstreamIcNS_11char_traitsIcEENS_9allocatorIcEEED0Ev, symObjAddr: 0x24D4, symBinAddr: 0x100003DA0, symSize: 0x94 }
  - { offset: 0x69D1, size: 0x8, addend: 0x0, symName: __ZThn16_NSt3__118basic_stringstreamIcNS_11char_traitsIcEENS_9allocatorIcEEED0Ev, symObjAddr: 0x2568, symBinAddr: 0x100003E34, symSize: 0xA0 }
  - { offset: 0x6AF5, size: 0x8, addend: 0x0, symName: __ZTv0_n24_NSt3__118basic_stringstreamIcNS_11char_traitsIcEENS_9allocatorIcEEED0Ev, symObjAddr: 0x2608, symBinAddr: 0x100003ED4, symSize: 0x9C }
  - { offset: 0x6C19, size: 0x8, addend: 0x0, symName: __ZNSt3__115basic_stringbufIcNS_11char_traitsIcEENS_9allocatorIcEEED1Ev, symObjAddr: 0x26A4, symBinAddr: 0x100003F70, symSize: 0x58 }
  - { offset: 0x6CFE, size: 0x8, addend: 0x0, symName: __ZNSt3__115basic_stringbufIcNS_11char_traitsIcEENS_9allocatorIcEEED0Ev, symObjAddr: 0x26FC, symBinAddr: 0x100003FC8, symSize: 0x58 }
  - { offset: 0x6E0A, size: 0x8, addend: 0x0, symName: __ZNSt3__115basic_stringbufIcNS_11char_traitsIcEENS_9allocatorIcEEE7seekoffExNS_8ios_base7seekdirEj, symObjAddr: 0x2754, symBinAddr: 0x100004020, symSize: 0x100 }
  - { offset: 0x6F48, size: 0x8, addend: 0x0, symName: __ZNSt3__115basic_stringbufIcNS_11char_traitsIcEENS_9allocatorIcEEE7seekposENS_4fposI11__mbstate_tEEj, symObjAddr: 0x2854, symBinAddr: 0x100004120, symSize: 0x18 }
  - { offset: 0x6F7A, size: 0x8, addend: 0x0, symName: __ZNSt3__115basic_stringbufIcNS_11char_traitsIcEENS_9allocatorIcEEE9underflowEv, symObjAddr: 0x286C, symBinAddr: 0x100004138, symSize: 0x50 }
  - { offset: 0x6FE0, size: 0x8, addend: 0x0, symName: __ZNSt3__115basic_stringbufIcNS_11char_traitsIcEENS_9allocatorIcEEE9pbackfailEi, symObjAddr: 0x28BC, symBinAddr: 0x100004188, symSize: 0x6C }
  - { offset: 0x7076, size: 0x8, addend: 0x0, symName: __ZNSt3__115basic_stringbufIcNS_11char_traitsIcEENS_9allocatorIcEEE8overflowEi, symObjAddr: 0x2928, symBinAddr: 0x1000041F4, symSize: 0x158 }
  - { offset: 0x732D, size: 0x8, addend: 0x0, symName: __ZNSt3__112basic_stringIcNS_11char_traitsIcEENS_9allocatorIcEEE16__init_with_sizeB8ne200100IPcS7_EEvT_T0_m, symObjAddr: 0x2E1C, symBinAddr: 0x1000045BC, symSize: 0x9C }
  - { offset: 0x743F, size: 0x8, addend: 0x0, symName: __ZNSt3__16__treeINS_12__value_typeINS_12basic_stringIcNS_11char_traitsIcEENS_9allocatorIcEEEES7_EENS_19__map_value_compareIS7_S8_NS_4lessIS7_EELb1EEENS5_IS8_EEE25__emplace_unique_key_argsIS7_JRKNS_21piecewise_construct_tENS_5tupleIJOS7_EEENSJ_IJEEEEEENS_4pairINS_15__tree_iteratorIS8_PNS_11__tree_nodeIS8_PvEElEEbEERKT_DpOT0_, symObjAddr: 0x2EB8, symBinAddr: 0x100004658, symSize: 0x9C }
  - { offset: 0x7497, size: 0x8, addend: 0x0, symName: __ZNSt3__16__treeINS_12__value_typeINS_12basic_stringIcNS_11char_traitsIcEENS_9allocatorIcEEEES7_EENS_19__map_value_compareIS7_S8_NS_4lessIS7_EELb1EEENS5_IS8_EEE12__find_equalIS7_EERPNS_16__tree_node_baseIPvEERPNS_15__tree_end_nodeISJ_EERKT_, symObjAddr: 0x2F54, symBinAddr: 0x1000046F4, symSize: 0x98 }
  - { offset: 0x74F2, size: 0x8, addend: 0x0, symName: __ZNSt3__16__treeINS_12__value_typeINS_12basic_stringIcNS_11char_traitsIcEENS_9allocatorIcEEEES7_EENS_19__map_value_compareIS7_S8_NS_4lessIS7_EELb1EEENS5_IS8_EEE16__insert_node_atEPNS_15__tree_end_nodeIPNS_16__tree_node_baseIPvEEEERSJ_SJ_, symObjAddr: 0x2FEC, symBinAddr: 0x10000478C, symSize: 0x54 }
  - { offset: 0x751D, size: 0x8, addend: 0x0, symName: __ZNKSt3__14lessINS_12basic_stringIcNS_11char_traitsIcEENS_9allocatorIcEEEEEclB8ne200100ERKS6_S9_, symObjAddr: 0x3040, symBinAddr: 0x1000047E0, symSize: 0x68 }
  - { offset: 0x75F5, size: 0x8, addend: 0x0, symName: __ZNSt3__127__tree_balance_after_insertB8ne200100IPNS_16__tree_node_baseIPvEEEEvT_S5_, symObjAddr: 0x30A8, symBinAddr: 0x100004848, symSize: 0x19C }
  - { offset: 0x79CF, size: 0x8, addend: 0x0, symName: __ZNSt3__113basic_filebufIcNS_11char_traitsIcEEEC2Ev, symObjAddr: 0x3584, symBinAddr: 0x1000049E4, symSize: 0x154 }
  - { offset: 0x7A0A, size: 0x8, addend: 0x0, symName: __ZNSt3__113basic_filebufIcNS_11char_traitsIcEEE9__do_openB8ne200100EP7__sFILEj, symObjAddr: 0x3808, symBinAddr: 0x100004C68, symSize: 0x78 }
  - { offset: 0x7A6E, size: 0x8, addend: 0x0, symName: __GLOBAL__sub_I_format_main.cpp, symObjAddr: 0x3C7C, symBinAddr: 0x100004CE0, symSize: 0x11C }
  - { offset: 0x7BE0, size: 0x8, addend: 0x0, symName: __Z10mk_wcwidthj, symObjAddr: 0x0, symBinAddr: 0x100004DFC, symSize: 0x158 }
  - { offset: 0x7BF3, size: 0x8, addend: 0x0, symName: __Z10mk_wcwidthj, symObjAddr: 0x0, symBinAddr: 0x100004DFC, symSize: 0x158 }
  - { offset: 0x7C5E, size: 0x8, addend: 0x0, symName: __ZNSt3__16vectorINS_4pairINS_12basic_stringIcNS_11char_traitsIcEENS_9allocatorIcEEEEN5units8quantityIxNS8_24energy_in_millijoule_tagEEEEENS5_ISC_EEED1B8ne200100Ev, symObjAddr: 0x0, symBinAddr: 0x100004F54, symSize: 0x34 }
  - { offset: 0x7CBD, size: 0x8, addend: 0x0, symName: __ZNSt3__16vectorINS_4pairINS_12basic_stringIcNS_11char_traitsIcEENS_9allocatorIcEEEEN5units8quantityIxNS8_24energy_in_millijoule_tagEEEEENS5_ISC_EEE16__destroy_vectorclB8ne200100Ev, symObjAddr: 0xA0A0, symBinAddr: 0x10000DD0C, symSize: 0x40 }
  - { offset: 0x7D42, size: 0x8, addend: 0x0, symName: __ZNSt3__16vectorINS_4pairINS_12basic_stringIcNS_11char_traitsIcEENS_9allocatorIcEEEEN5units8quantityIxNS8_22power_in_milliwatt_tagEEEEENS5_ISC_EEED1B8ne200100Ev, symObjAddr: 0x34, symBinAddr: 0x100004F88, symSize: 0x34 }
  - { offset: 0x7DEA, size: 0x8, addend: 0x0, symName: __ZNSt3__16vectorINS_4pairINS_12basic_stringIcNS_11char_traitsIcEENS_9allocatorIcEEEEN5units8quantityIxNS8_21mass_in_milligram_tagEEEEENS5_ISC_EEED1B8ne200100Ev, symObjAddr: 0x68, symBinAddr: 0x100004FBC, symSize: 0x34 }
  - { offset: 0x7E92, size: 0x8, addend: 0x0, symName: __ZNSt3__16vectorINS_4pairINS_12basic_stringIcNS_11char_traitsIcEENS_9allocatorIcEEEEN5units8quantityIiNS8_17money_in_cent_tagEEEEENS5_ISC_EEED1B8ne200100Ev, symObjAddr: 0x9C, symBinAddr: 0x100004FF0, symSize: 0x34 }
  - { offset: 0x7F3A, size: 0x8, addend: 0x0, symName: __ZNSt3__16vectorINS_4pairINS_12basic_stringIcNS_11char_traitsIcEENS_9allocatorIcEEEEN5units8quantityIiNS8_24volume_in_milliliter_tagEEEEENS5_ISC_EEED1B8ne200100Ev, symObjAddr: 0xD0, symBinAddr: 0x100005024, symSize: 0x34 }
  - { offset: 0x7FE2, size: 0x8, addend: 0x0, symName: __ZNSt3__16vectorINS_4pairINS_12basic_stringIcNS_11char_traitsIcEENS_9allocatorIcEEEEN5units8quantityIiNS8_24length_in_millimeter_tagEEEEENS5_ISC_EEED1B8ne200100Ev, symObjAddr: 0x104, symBinAddr: 0x100005058, symSize: 0x34 }
  - { offset: 0x808A, size: 0x8, addend: 0x0, symName: __ZNSt3__16vectorINS_4pairINS_12basic_stringIcNS_11char_traitsIcEENS_9allocatorIcEEEEN5units8quantityIdNS8_20angle_in_radians_tagEEEEENS5_ISC_EEED1B8ne200100Ev, symObjAddr: 0x138, symBinAddr: 0x10000508C, symSize: 0x34 }
  - { offset: 0x8132, size: 0x8, addend: 0x0, symName: __ZNSt3__16vectorINS_4pairINS_12basic_stringIcNS_11char_traitsIcEENS_9allocatorIcEEEEN5units8quantityIfNS8_25temperature_in_kelvin_tagEEEEENS5_ISC_EEED1B8ne200100Ev, symObjAddr: 0x16C, symBinAddr: 0x1000050C0, symSize: 0x34 }
  - { offset: 0x81E0, size: 0x8, addend: 0x0, symName: __ZNSt3__13mapINS_12basic_stringIcNS_11char_traitsIcEENS_9allocatorIcEEEEfNS_4lessIS6_EENS4_INS_4pairIKS6_fEEEEED1B8ne200100Ev, symObjAddr: 0x1A0, symBinAddr: 0x1000050F4, symSize: 0x28 }
  - { offset: 0x8323, size: 0x8, addend: 0x0, symName: __ZNSt3__13mapIfNS_12basic_stringIcNS_11char_traitsIcEENS_9allocatorIcEEEENS_4lessIfEENS4_INS_4pairIKfS6_EEEEED1B8ne200100Ev, symObjAddr: 0x1C8, symBinAddr: 0x10000511C, symSize: 0x28 }
  - { offset: 0x8399, size: 0x8, addend: 0x0, symName: __ZNSt3__16__treeINS_12__value_typeIfNS_12basic_stringIcNS_11char_traitsIcEENS_9allocatorIcEEEEEENS_19__map_value_compareIfS8_NS_4lessIfEELb1EEENS5_IS8_EEE7destroyEPNS_11__tree_nodeIS8_PvEE, symObjAddr: 0xBD94, symBinAddr: 0x10000EED4, symSize: 0x50 }
  - { offset: 0x8526, size: 0x8, addend: 0x0, symName: __Z13utf32_to_utf8j, symObjAddr: 0x1F0, symBinAddr: 0x100005144, symSize: 0xB8 }
  - { offset: 0x8602, size: 0x8, addend: 0x0, symName: __ZNSt3__16__treeINS_12__value_typeINS_12basic_stringIcNS_11char_traitsIcEENS_9allocatorIcEEEEiEENS_19__map_value_compareIS7_S8_NS_4lessIvEELb1EEENS5_IS8_EEE7destroyEPNS_11__tree_nodeIS8_PvEE, symObjAddr: 0x93F4, symBinAddr: 0x10000D894, symSize: 0x50 }
  - { offset: 0x860C, size: 0x8, addend: 0x0, symName: __ZNK13TextJsonValue12string_errorERKNSt3__112basic_stringIcNS0_11char_traitsIcEENS0_9allocatorIcEEEE, symObjAddr: 0x2A8, symBinAddr: 0x1000051FC, symSize: 0x14 }
  - { offset: 0x8621, size: 0x8, addend: 0x0, symName: __ZNK13TextJsonValue12string_errorEiRKNSt3__112basic_stringIcNS0_11char_traitsIcEENS0_9allocatorIcEEEE, symObjAddr: 0x2BC, symBinAddr: 0x100005210, symSize: 0x24 }
  - { offset: 0x862B, size: 0x8, addend: 0x0, symName: __ZNK13TextJsonValue12string_errorEiRKNSt3__112basic_stringIcNS0_11char_traitsIcEENS0_9allocatorIcEEEE, symObjAddr: 0x2BC, symBinAddr: 0x100005210, symSize: 0x24 }
  - { offset: 0x864D, size: 0x8, addend: 0x0, symName: __ZNK13TextJsonValue4seekEv, symObjAddr: 0x2E0, symBinAddr: 0x100005234, symSize: 0x2C }
  - { offset: 0x8657, size: 0x8, addend: 0x0, symName: __ZNK13TextJsonValue4seekEv, symObjAddr: 0x2E0, symBinAddr: 0x100005234, symSize: 0x2C }
  - { offset: 0x8676, size: 0x8, addend: 0x0, symName: __ZN10TextJsonIn12string_errorEiRKNSt3__112basic_stringIcNS0_11char_traitsIcEENS0_9allocatorIcEEEE, symObjAddr: 0x30C, symBinAddr: 0x100005260, symSize: 0xDC }
  - { offset: 0x89DC, size: 0x8, addend: 0x0, symName: __ZN10TextJsonIn4seekEi, symObjAddr: 0x1514, symBinAddr: 0x100006468, symSize: 0x98 }
  - { offset: 0x8A75, size: 0x8, addend: 0x0, symName: __ZN10TextJsonIn14eat_whitespaceEv, symObjAddr: 0x4FB4, symBinAddr: 0x100009D20, symSize: 0x60 }
  - { offset: 0x8AB1, size: 0x8, addend: 0x0, symName: __ZL22get_escaped_or_unicodeRNSt3__113basic_istreamIcNS_11char_traitsIcEEEERNS_12basic_stringIcS2_NS_9allocatorIcEEEES9_, symObjAddr: 0x5B60, symBinAddr: 0x10000A8CC, symSize: 0x3E8 }
  - { offset: 0x8F31, size: 0x8, addend: 0x0, symName: __ZN10TextJsonIn5errorEiRKNSt3__112basic_stringIcNS0_11char_traitsIcEENS0_9allocatorIcEEEE, symObjAddr: 0x420, symBinAddr: 0x100005374, symSize: 0xAA0 }
  - { offset: 0xAB15, size: 0x8, addend: 0x0, symName: __ZNK13TextJsonValue11throw_errorERKNSt3__112basic_stringIcNS0_11char_traitsIcEENS0_9allocatorIcEEEE, symObjAddr: 0x3E8, symBinAddr: 0x10000533C, symSize: 0x14 }
  - { offset: 0xAB2A, size: 0x8, addend: 0x0, symName: __ZNK13TextJsonValue11throw_errorEiRKNSt3__112basic_stringIcNS0_11char_traitsIcEENS0_9allocatorIcEEEE, symObjAddr: 0x3FC, symBinAddr: 0x100005350, symSize: 0x24 }
  - { offset: 0xAB34, size: 0x8, addend: 0x0, symName: __ZNK13TextJsonValue11throw_errorEiRKNSt3__112basic_stringIcNS0_11char_traitsIcEENS0_9allocatorIcEEEE, symObjAddr: 0x3FC, symBinAddr: 0x100005350, symSize: 0x24 }
  - { offset: 0xAB56, size: 0x8, addend: 0x0, symName: __ZN10TextJsonIn5errorEiRKNSt3__112basic_stringIcNS0_11char_traitsIcEENS0_9allocatorIcEEEE, symObjAddr: 0x420, symBinAddr: 0x100005374, symSize: 0xAA0 }
  - { offset: 0xAC56, size: 0x8, addend: 0x0, symName: __ZNSt3__119basic_ostringstreamIcNS_11char_traitsIcEENS_9allocatorIcEEEC1B8ne200100Ev, symObjAddr: 0x7384, symBinAddr: 0x10000C0F0, symSize: 0xB4 }
  - { offset: 0xAD88, size: 0x8, addend: 0x0, symName: __ZN10TextJsonIn11line_numberEi, symObjAddr: 0x18B8, symBinAddr: 0x100006778, symSize: 0x720 }
  - { offset: 0xBFCC, size: 0x8, addend: 0x0, symName: __ZN10TextJsonIn6rewindEii, symObjAddr: 0x7438, symBinAddr: 0x10000C1A4, symSize: 0x1F8 }
  - { offset: 0xC13F, size: 0x8, addend: 0x0, symName: __ZNSt3__112basic_stringIcNS_11char_traitsIcEENS_9allocatorIcEEEC2B8ne200100ENS_24__uninitialized_size_tagEmRKS4_, symObjAddr: 0xC670, symBinAddr: 0x10000F4F8, symSize: 0x78 }
  - { offset: 0xC149, size: 0x8, addend: 0x0, symName: __ZL14utf8_width_rawNSt3__117basic_string_viewIcNS_11char_traitsIcEEEE, symObjAddr: 0x7630, symBinAddr: 0x10000C39C, symSize: 0x214 }
  - { offset: 0xC175, size: 0x8, addend: 0x0, symName: __ZNSt3__119basic_ostringstreamIcNS_11char_traitsIcEENS_9allocatorIcEEED1Ev, symObjAddr: 0x7844, symBinAddr: 0x10000C5B0, symSize: 0x8C }
  - { offset: 0xC274, size: 0x8, addend: 0x0, symName: __ZN15on_out_of_scopeD2Ev, symObjAddr: 0x9270, symBinAddr: 0x10000D834, symSize: 0x60 }
  - { offset: 0xC346, size: 0x8, addend: 0x0, symName: __ZNK13TextJsonValue17throw_error_afterERKNSt3__112basic_stringIcNS0_11char_traitsIcEENS0_9allocatorIcEEEE, symObjAddr: 0xEC0, symBinAddr: 0x100005E14, symSize: 0x28 }
  - { offset: 0xC375, size: 0x8, addend: 0x0, symName: __ZN10TextJsonIn10skip_valueEv, symObjAddr: 0xEE8, symBinAddr: 0x100005E3C, symSize: 0x1B8 }
  - { offset: 0xC37F, size: 0x8, addend: 0x0, symName: __ZN10TextJsonIn10skip_valueEv, symObjAddr: 0xEE8, symBinAddr: 0x100005E3C, symSize: 0x1B8 }
  - { offset: 0xC560, size: 0x8, addend: 0x0, symName: __ZN10TextJsonIn5errorERKNSt3__112basic_stringIcNS0_11char_traitsIcEENS0_9allocatorIcEEEE, symObjAddr: 0x10A0, symBinAddr: 0x100005FF4, symSize: 0x14 }
  - { offset: 0xC575, size: 0x8, addend: 0x0, symName: __ZN14TextJsonObjectC2ER10TextJsonIn, symObjAddr: 0x10B4, symBinAddr: 0x100006008, symSize: 0x1B4 }
  - { offset: 0xC585, size: 0x8, addend: 0x0, symName: __ZN10TextJsonIn11skip_objectEv, symObjAddr: 0x55D0, symBinAddr: 0x10000A33C, symSize: 0x50 }
  - { offset: 0xC5FA, size: 0x8, addend: 0x0, symName: __ZN10TextJsonIn11skip_numberEv, symObjAddr: 0x5660, symBinAddr: 0x10000A3CC, symSize: 0xC4 }
  - { offset: 0xC66B, size: 0x8, addend: 0x0, symName: __ZN10TextJsonIn11skip_stringEv, symObjAddr: 0x52EC, symBinAddr: 0x10000A058, symSize: 0x1AC }
  - { offset: 0xC948, size: 0x8, addend: 0x0, symName: __ZN10TextJsonIn10skip_arrayEv, symObjAddr: 0x5620, symBinAddr: 0x10000A38C, symSize: 0x40 }
  - { offset: 0xC98E, size: 0x8, addend: 0x0, symName: __ZN10TextJsonIn9skip_trueEv, symObjAddr: 0x5724, symBinAddr: 0x10000A490, symSize: 0x168 }
  - { offset: 0xCBBE, size: 0x8, addend: 0x0, symName: __ZN10TextJsonIn9skip_nullEv, symObjAddr: 0x59F8, symBinAddr: 0x10000A764, symSize: 0x168 }
  - { offset: 0xCDEE, size: 0x8, addend: 0x0, symName: __ZN10TextJsonIn10skip_falseEv, symObjAddr: 0x588C, symBinAddr: 0x10000A5F8, symSize: 0x16C }
  - { offset: 0xD12E, size: 0x8, addend: 0x0, symName: __ZN14TextJsonObjectC2ER10TextJsonIn, symObjAddr: 0x10B4, symBinAddr: 0x100006008, symSize: 0x1B4 }
  - { offset: 0xD543, size: 0x8, addend: 0x0, symName: __ZN10TextJsonIn12start_objectEv, symObjAddr: 0x12BC, symBinAddr: 0x100006210, symSize: 0xEC }
  - { offset: 0xD6DE, size: 0x8, addend: 0x0, symName: __ZN10TextJsonIn10end_objectEv, symObjAddr: 0x13A8, symBinAddr: 0x1000062FC, symSize: 0xA8 }
  - { offset: 0xD81B, size: 0x8, addend: 0x0, symName: __ZN10TextJsonIn15get_member_nameEv, symObjAddr: 0x1450, symBinAddr: 0x1000063A4, symSize: 0x48 }
  - { offset: 0xD8F2, size: 0x8, addend: 0x0, symName: __ZNKSt3__16__treeINS_12__value_typeINS_12basic_stringIcNS_11char_traitsIcEENS_9allocatorIcEEEEiEENS_19__map_value_compareIS7_S8_NS_4lessIvEELb1EEENS5_IS8_EEE14__count_uniqueIS7_EEmRKT_, symObjAddr: 0xBDE4, symBinAddr: 0x10000EF24, symSize: 0x70 }
  - { offset: 0xD938, size: 0x8, addend: 0x0, symName: __ZNSt3__16__treeINS_12__value_typeINS_12basic_stringIcNS_11char_traitsIcEENS_9allocatorIcEEEEiEENS_19__map_value_compareIS7_S8_NS_4lessIvEELb1EEENS5_IS8_EEE25__emplace_unique_key_argsIS7_JRKNS_21piecewise_construct_tENS_5tupleIJRKS7_EEENSJ_IJEEEEEENS_4pairINS_15__tree_iteratorIS8_PNS_11__tree_nodeIS8_PvEElEEbEERKT_DpOT0_, symObjAddr: 0xBEBC, symBinAddr: 0x10000EF94, symSize: 0x94 }
  - { offset: 0xD99B, size: 0x8, addend: 0x0, symName: __ZNSt3__16__treeINS_12__value_typeINS_12basic_stringIcNS_11char_traitsIcEENS_9allocatorIcEEEEiEENS_19__map_value_compareIS7_S8_NS_4lessIvEELb1EEENS5_IS8_EEE7destroyEPNS_11__tree_nodeIS8_PvEE, symObjAddr: 0x93F4, symBinAddr: 0x10000D894, symSize: 0x50 }
  - { offset: 0xDB1C, size: 0x8, addend: 0x0, symName: __ZN10TextJsonIn4tellEv, symObjAddr: 0x1268, symBinAddr: 0x1000061BC, symSize: 0x54 }
  - { offset: 0xDB49, size: 0x8, addend: 0x0, symName: __ZN10TextJsonIn14skip_separatorEv, symObjAddr: 0x50E4, symBinAddr: 0x100009E50, symSize: 0x1DC }
  - { offset: 0xDE2C, size: 0x8, addend: 0x0, symName: __ZN10TextJsonIn16uneat_whitespaceEv, symObjAddr: 0x5014, symBinAddr: 0x100009D80, symSize: 0xC8 }
  - { offset: 0xDE83, size: 0x8, addend: 0x0, symName: __ZN10TextJsonIn10get_stringEv, symObjAddr: 0x2E24, symBinAddr: 0x100007CE4, symSize: 0x2D8 }
  - { offset: 0xE76B, size: 0x8, addend: 0x0, symName: __ZN10TextJsonIn19skip_pair_separatorEv, symObjAddr: 0x5498, symBinAddr: 0x10000A204, symSize: 0x138 }
  - { offset: 0xE9E1, size: 0x8, addend: 0x0, symName: __ZN14TextJsonObjectC1ER10TextJsonIn, symObjAddr: 0x1498, symBinAddr: 0x1000063EC, symSize: 0x4 }
  - { offset: 0xE9F6, size: 0x8, addend: 0x0, symName: __ZN14TextJsonObjectC1ER10TextJsonIn, symObjAddr: 0x1498, symBinAddr: 0x1000063EC, symSize: 0x4 }
  - { offset: 0xEA00, size: 0x8, addend: 0x0, symName: __ZNK14TextJsonObject12mark_visitedENSt3__117basic_string_viewIcNS0_11char_traitsIcEEEE, symObjAddr: 0x149C, symBinAddr: 0x1000063F0, symSize: 0x4 }
  - { offset: 0xEA11, size: 0x8, addend: 0x0, symName: __ZNK14TextJsonObject16report_unvisitedEv, symObjAddr: 0x14A0, symBinAddr: 0x1000063F4, symSize: 0x4 }
  - { offset: 0xEA2E, size: 0x8, addend: 0x0, symName: __ZN14TextJsonObject6finishEv, symObjAddr: 0x14A4, symBinAddr: 0x1000063F8, symSize: 0x50 }
  - { offset: 0xEAA1, size: 0x8, addend: 0x0, symName: __ZN10TextJsonIn4goodEv, symObjAddr: 0x14F4, symBinAddr: 0x100006448, symSize: 0x20 }
  - { offset: 0xEAF6, size: 0x8, addend: 0x0, symName: __ZNK14TextJsonObject4sizeEv, symObjAddr: 0x15AC, symBinAddr: 0x100006500, symSize: 0x8 }
  - { offset: 0xEB0B, size: 0x8, addend: 0x0, symName: __ZNK14TextJsonObject4sizeEv, symObjAddr: 0x15AC, symBinAddr: 0x100006500, symSize: 0x8 }
  - { offset: 0xEB22, size: 0x8, addend: 0x0, symName: __ZNK14TextJsonObject5emptyEv, symObjAddr: 0x15B4, symBinAddr: 0x100006508, symSize: 0x10 }
  - { offset: 0xEB37, size: 0x8, addend: 0x0, symName: __ZNK14TextJsonObject5emptyEv, symObjAddr: 0x15B4, symBinAddr: 0x100006508, symSize: 0x10 }
  - { offset: 0xEB48, size: 0x8, addend: 0x0, symName: __ZNK14TextJsonObject21allow_omitted_membersEv, symObjAddr: 0x15C4, symBinAddr: 0x100006518, symSize: 0x4 }
  - { offset: 0xEB59, size: 0x8, addend: 0x0, symName: __ZNK14TextJsonObject20copy_visited_membersERKS_, symObjAddr: 0x15C8, symBinAddr: 0x10000651C, symSize: 0x4 }
  - { offset: 0xEB82, size: 0x8, addend: 0x0, symName: __ZNK14TextJsonObject15verify_positionENSt3__117basic_string_viewIcNS0_11char_traitsIcEEEEb, symObjAddr: 0x15CC, symBinAddr: 0x100006520, symSize: 0x148 }
  - { offset: 0xEDA7, size: 0x8, addend: 0x0, symName: __ZNKSt3__16__treeINS_12__value_typeINS_12basic_stringIcNS_11char_traitsIcEENS_9allocatorIcEEEEiEENS_19__map_value_compareIS7_S8_NS_4lessIvEELb1EEENS5_IS8_EEE4findINS_17basic_string_viewIcS4_EEEENS_21__tree_const_iteratorIS8_PNS_11__tree_nodeIS8_PvEElEERKT_, symObjAddr: 0xC130, symBinAddr: 0x10000F0CC, symSize: 0x8C }
  - { offset: 0xEE2D, size: 0x8, addend: 0x0, symName: __Z7str_catIRA32_KcJRKNSt3__117basic_string_viewIcNS3_11char_traitsIcEEEEEENS3_12basic_stringIcS6_NS3_9allocatorIcEEEEOT_DpOT0_, symObjAddr: 0x1714, symBinAddr: 0x100006668, symSize: 0x94 }
  - { offset: 0xF129, size: 0x8, addend: 0x0, symName: __ZN9JsonErrorC1ERKNSt3__112basic_stringIcNS0_11char_traitsIcEENS0_9allocatorIcEEEE, symObjAddr: 0x17A8, symBinAddr: 0x1000066FC, symSize: 0x24 }
  - { offset: 0xF156, size: 0x8, addend: 0x0, symName: __ZN9JsonErrorD1Ev, symObjAddr: 0x17CC, symBinAddr: 0x100006720, symSize: 0x4 }
  - { offset: 0xF16B, size: 0x8, addend: 0x0, symName: __ZN9JsonErrorD1Ev, symObjAddr: 0x17CC, symBinAddr: 0x100006720, symSize: 0x4 }
  - { offset: 0xF17C, size: 0x8, addend: 0x0, symName: __ZNK14TextJsonObject10has_memberERKNSt3__112basic_stringIcNS0_11char_traitsIcEENS0_9allocatorIcEEEE, symObjAddr: 0x1864, symBinAddr: 0x100006724, symSize: 0x1C }
  - { offset: 0xF1AF, size: 0x8, addend: 0x0, symName: __ZNK14TextJsonObject11line_numberEv, symObjAddr: 0x1880, symBinAddr: 0x100006740, symSize: 0x38 }
  - { offset: 0xF325, size: 0x8, addend: 0x0, symName: __ZNSt3__16vectorINS_12basic_stringIcNS_11char_traitsIcEENS_9allocatorIcEEEENS4_IS6_EEE24__emplace_back_slow_pathIJRKS6_EEEPS6_DpOT_, symObjAddr: 0x8EAC, symBinAddr: 0x10000D470, symSize: 0x138 }
  - { offset: 0xF4D8, size: 0x8, addend: 0x0, symName: __ZNSt3__16vectorINS_12basic_stringIcNS_11char_traitsIcEENS_9allocatorIcEEEENS4_IS6_EEE16__destroy_vectorclB8ne200100Ev, symObjAddr: 0x96D0, symBinAddr: 0x10000D8E4, symSize: 0x40 }
  - { offset: 0xF54B, size: 0x8, addend: 0x0, symName: __ZNSt3__112basic_stringIcNS_11char_traitsIcEENS_9allocatorIcEEEC2B8ne200100ENS_24__uninitialized_size_tagEmRKS4_, symObjAddr: 0xC670, symBinAddr: 0x10000F4F8, symSize: 0x78 }
  - { offset: 0xF609, size: 0x8, addend: 0x0, symName: '__ZNSt3__110__function6__funcIZN10TextJsonIn5errorEiRKNS_12basic_stringIcNS_11char_traitsIcEENS_9allocatorIcEEEEE3$_0NS6_ISB_EEFvvEED1Ev', symObjAddr: 0xC6E8, symBinAddr: 0x10000F570, symSize: 0x4 }
  - { offset: 0xF613, size: 0x8, addend: 0x0, symName: __ZNK14TextJsonObject3strEv, symObjAddr: 0x1FD8, symBinAddr: 0x100006E98, symSize: 0x38 }
  - { offset: 0xF653, size: 0x8, addend: 0x0, symName: __ZN10TextJsonIn6substrEmm, symObjAddr: 0x2010, symBinAddr: 0x100006ED0, symSize: 0x10C }
  - { offset: 0xF7EC, size: 0x8, addend: 0x0, symName: __ZNK14TextJsonObject14throw_error_atENSt3__117basic_string_viewIcNS0_11char_traitsIcEEEERKNS0_12basic_stringIcS3_NS0_9allocatorIcEEEE, symObjAddr: 0x211C, symBinAddr: 0x100006FDC, symSize: 0x80 }
  - { offset: 0xF832, size: 0x8, addend: 0x0, symName: __ZNK13TextJsonArray11throw_errorERKNSt3__112basic_stringIcNS0_11char_traitsIcEENS0_9allocatorIcEEEE, symObjAddr: 0x219C, symBinAddr: 0x10000705C, symSize: 0x60 }
  - { offset: 0xF864, size: 0x8, addend: 0x0, symName: __ZNK13TextJsonArray11throw_errorEiRKNSt3__112basic_stringIcNS0_11char_traitsIcEENS0_9allocatorIcEEEE, symObjAddr: 0x21FC, symBinAddr: 0x1000070BC, symSize: 0x88 }
  - { offset: 0xF8B2, size: 0x8, addend: 0x0, symName: __ZNK13TextJsonArray12string_errorEiiRKNSt3__112basic_stringIcNS0_11char_traitsIcEENS0_9allocatorIcEEEE, symObjAddr: 0x2284, symBinAddr: 0x100007144, symSize: 0x60 }
  - { offset: 0xF8F6, size: 0x8, addend: 0x0, symName: __ZNK14TextJsonObject11throw_errorERKNSt3__112basic_stringIcNS0_11char_traitsIcEENS0_9allocatorIcEEEE, symObjAddr: 0x22E4, symBinAddr: 0x1000071A4, symSize: 0x60 }
  - { offset: 0xF900, size: 0x8, addend: 0x0, symName: __ZNK14TextJsonObject11throw_errorERKNSt3__112basic_stringIcNS0_11char_traitsIcEENS0_9allocatorIcEEEE, symObjAddr: 0x22E4, symBinAddr: 0x1000071A4, symSize: 0x60 }
  - { offset: 0xF92C, size: 0x8, addend: 0x0, symName: __ZNK14TextJsonObject7get_rawENSt3__117basic_string_viewIcNS0_11char_traitsIcEEEE, symObjAddr: 0x2344, symBinAddr: 0x100007204, symSize: 0x34 }
  - { offset: 0xF9B2, size: 0x8, addend: 0x0, symName: __ZNK14TextJsonObject19get_source_locationEv, symObjAddr: 0x2378, symBinAddr: 0x100007238, symSize: 0x194 }
  - { offset: 0xFD48, size: 0x8, addend: 0x0, symName: __ZNSt3__110shared_ptrINS_12basic_stringIcNS_11char_traitsIcEENS_9allocatorIcEEEEEaSB8ne200100EOS7_, symObjAddr: 0x250C, symBinAddr: 0x1000073CC, symSize: 0x5C }
  - { offset: 0xFE91, size: 0x8, addend: 0x0, symName: __ZNK14TextJsonObject8get_boolENSt3__117basic_string_viewIcNS0_11char_traitsIcEEEE, symObjAddr: 0x2568, symBinAddr: 0x100007428, symSize: 0x28 }
  - { offset: 0xFEF5, size: 0x8, addend: 0x0, symName: __ZNK14TextJsonObject10get_memberENSt3__117basic_string_viewIcNS0_11char_traitsIcEEEE, symObjAddr: 0x2590, symBinAddr: 0x100007450, symSize: 0xBC }
  - { offset: 0x100A6, size: 0x8, addend: 0x0, symName: __ZN10TextJsonIn8get_boolEv, symObjAddr: 0x2698, symBinAddr: 0x100007558, symSize: 0x39C }
  - { offset: 0x10630, size: 0x8, addend: 0x0, symName: __Z7str_catIRA25_KcJRKNSt3__117basic_string_viewIcNS3_11char_traitsIcEEEERA14_S0_NS3_12basic_stringIcS6_NS3_9allocatorIcEEEEEESF_OT_DpOT0_, symObjAddr: 0x854C, symBinAddr: 0x10000D2B8, symSize: 0xAC }
  - { offset: 0x1082A, size: 0x8, addend: 0x0, symName: __ZNK14TextJsonObject8get_boolENSt3__117basic_string_viewIcNS0_11char_traitsIcEEEEb, symObjAddr: 0x264C, symBinAddr: 0x10000750C, symSize: 0x4C }
  - { offset: 0x1089A, size: 0x8, addend: 0x0, symName: __ZNK14TextJsonObject7get_intENSt3__117basic_string_viewIcNS0_11char_traitsIcEEEE, symObjAddr: 0x2A34, symBinAddr: 0x1000078F4, symSize: 0x28 }
  - { offset: 0x108FE, size: 0x8, addend: 0x0, symName: __ZN10TextJsonIn7get_intEv, symObjAddr: 0x2AA8, symBinAddr: 0x100007968, symSize: 0x194 }
  - { offset: 0x10ACE, size: 0x8, addend: 0x0, symName: __ZNK14TextJsonObject7get_intENSt3__117basic_string_viewIcNS0_11char_traitsIcEEEEi, symObjAddr: 0x2A5C, symBinAddr: 0x10000791C, symSize: 0x4C }
  - { offset: 0x10B13, size: 0x8, addend: 0x0, symName: __ZN10TextJsonIn11get_any_intEv, symObjAddr: 0x5F48, symBinAddr: 0x10000ACB4, symSize: 0xC8 }
  - { offset: 0x10C59, size: 0x8, addend: 0x0, symName: __ZNK14TextJsonObject9get_floatENSt3__117basic_string_viewIcNS0_11char_traitsIcEEEE, symObjAddr: 0x2C3C, symBinAddr: 0x100007AFC, symSize: 0x64 }
  - { offset: 0x10CFD, size: 0x8, addend: 0x0, symName: __ZN10TextJsonIn14get_any_numberEv, symObjAddr: 0x6010, symBinAddr: 0x10000AD7C, symSize: 0x4B4 }
  - { offset: 0x110EE, size: 0x8, addend: 0x0, symName: __ZNK14TextJsonObject9get_floatENSt3__117basic_string_viewIcNS0_11char_traitsIcEEEEd, symObjAddr: 0x2CA0, symBinAddr: 0x100007B60, symSize: 0x7C }
  - { offset: 0x11167, size: 0x8, addend: 0x0, symName: __ZN10TextJsonIn9get_floatEv, symObjAddr: 0x2D1C, symBinAddr: 0x100007BDC, symSize: 0x4C }
  - { offset: 0x111B6, size: 0x8, addend: 0x0, symName: __ZNK14TextJsonObject10get_stringENSt3__117basic_string_viewIcNS0_11char_traitsIcEEEE, symObjAddr: 0x2D68, symBinAddr: 0x100007C28, symSize: 0x30 }
  - { offset: 0x1121A, size: 0x8, addend: 0x0, symName: __ZNK14TextJsonObject10get_stringENSt3__117basic_string_viewIcNS0_11char_traitsIcEEEERKNS0_12basic_stringIcS3_NS0_9allocatorIcEEEE, symObjAddr: 0x2D98, symBinAddr: 0x100007C58, symSize: 0x8C }
  - { offset: 0x112DC, size: 0x8, addend: 0x0, symName: __ZNK14TextJsonObject9get_arrayENSt3__117basic_string_viewIcNS0_11char_traitsIcEEEE, symObjAddr: 0x30FC, symBinAddr: 0x100007FBC, symSize: 0x68 }
  - { offset: 0x11355, size: 0x8, addend: 0x0, symName: __ZN13TextJsonArrayC2ER10TextJsonIn, symObjAddr: 0x3BA8, symBinAddr: 0x100008A68, symSize: 0x104 }
  - { offset: 0x1151B, size: 0x8, addend: 0x0, symName: __ZN13TextJsonArrayC1ER10TextJsonIn, symObjAddr: 0x3164, symBinAddr: 0x100008024, symSize: 0x4 }
  - { offset: 0x11530, size: 0x8, addend: 0x0, symName: __ZN13TextJsonArrayC1ER10TextJsonIn, symObjAddr: 0x3164, symBinAddr: 0x100008024, symSize: 0x4 }
  - { offset: 0x115D6, size: 0x8, addend: 0x0, symName: __ZNK14TextJsonObject13get_int_arrayENSt3__117basic_string_viewIcNS0_11char_traitsIcEEEE, symObjAddr: 0x3168, symBinAddr: 0x100008028, symSize: 0x124 }
  - { offset: 0x119E8, size: 0x8, addend: 0x0, symName: __ZN13TextJsonArrayC2ERKS_, symObjAddr: 0x3F1C, symBinAddr: 0x100008DDC, symSize: 0x48 }
  - { offset: 0x11AF1, size: 0x8, addend: 0x0, symName: __ZNK13TextJsonArray12verify_indexEm, symObjAddr: 0x4080, symBinAddr: 0x100008F40, symSize: 0x15C }
  - { offset: 0x11D2B, size: 0x8, addend: 0x0, symName: __ZNSt3__16vectorIiNS_9allocatorIiEEE9push_backB8ne200100ERKi, symObjAddr: 0x328C, symBinAddr: 0x10000814C, symSize: 0xDC }
  - { offset: 0x11EE6, size: 0x8, addend: 0x0, symName: __ZNK14TextJsonObject16get_string_arrayENSt3__117basic_string_viewIcNS0_11char_traitsIcEEEE, symObjAddr: 0x3368, symBinAddr: 0x100008228, symSize: 0x148 }
  - { offset: 0x11FB1, size: 0x8, addend: 0x0, symName: __ZNSt3__119__allocate_at_leastB8ne200100INS_9allocatorIiEEEENS_19__allocation_resultINS_16allocator_traitsIT_E7pointerEEERS5_m, symObjAddr: 0xC2D8, symBinAddr: 0x10000F210, symSize: 0x34 }
  - { offset: 0x1200F, size: 0x8, addend: 0x0, symName: __ZNSt3__119__allocate_at_leastB8ne200100INS_9allocatorIiEEEENS_19__allocation_resultINS_16allocator_traitsIT_E7pointerEEERS5_m, symObjAddr: 0xC2D8, symBinAddr: 0x10000F210, symSize: 0x34 }
  - { offset: 0x1201F, size: 0x8, addend: 0x0, symName: __ZNK14TextJsonObject16get_string_arrayENSt3__117basic_string_viewIcNS0_11char_traitsIcEEEE, symObjAddr: 0x3368, symBinAddr: 0x100008228, symSize: 0x148 }
  - { offset: 0x1252A, size: 0x8, addend: 0x0, symName: __ZNSt3__16vectorINS_12basic_stringIcNS_11char_traitsIcEENS_9allocatorIcEEEENS4_IS6_EEE9push_backB8ne200100ERKS6_, symObjAddr: 0x34B0, symBinAddr: 0x100008370, symSize: 0x3C }
  - { offset: 0x1256B, size: 0x8, addend: 0x0, symName: __ZNSt3__16vectorINS_12basic_stringIcNS_11char_traitsIcEENS_9allocatorIcEEEENS4_IS6_EEE22__construct_one_at_endB8ne200100IJRKS6_EEEvDpOT_, symObjAddr: 0x8E50, symBinAddr: 0x10000D414, symSize: 0x5C }
  - { offset: 0x1268C, size: 0x8, addend: 0x0, symName: __ZNK14TextJsonObject19get_as_string_arrayENSt3__117basic_string_viewIcNS0_11char_traitsIcEEEE, symObjAddr: 0x34EC, symBinAddr: 0x1000083AC, symSize: 0x1C4 }
  - { offset: 0x12D14, size: 0x8, addend: 0x0, symName: __ZNK14TextJsonObject9has_arrayENSt3__117basic_string_viewIcNS0_11char_traitsIcEEEE, symObjAddr: 0x36B0, symBinAddr: 0x100008570, symSize: 0x54 }
  - { offset: 0x12D78, size: 0x8, addend: 0x0, symName: __ZNSt3__16vectorINS_12basic_stringIcNS_11char_traitsIcEENS_9allocatorIcEEEENS4_IS6_EEE9push_backB8ne200100EOS6_, symObjAddr: 0x3704, symBinAddr: 0x1000085C4, symSize: 0x12C }
  - { offset: 0x12F5F, size: 0x8, addend: 0x0, symName: __ZNK14TextJsonObject10get_objectENSt3__117basic_string_viewIcNS0_11char_traitsIcEEEE, symObjAddr: 0x3830, symBinAddr: 0x1000086F0, symSize: 0x64 }
  - { offset: 0x12FBD, size: 0x8, addend: 0x0, symName: __ZNSt3__119__allocate_at_leastB8ne200100INS_9allocatorINS_12basic_stringIcNS_11char_traitsIcEENS1_IcEEEEEEEENS_19__allocation_resultINS_16allocator_traitsIT_E7pointerEEERSA_m, symObjAddr: 0x8FF8, symBinAddr: 0x10000D5BC, symSize: 0x44 }
  - { offset: 0x13008, size: 0x8, addend: 0x0, symName: __ZNSt3__114__split_bufferINS_12basic_stringIcNS_11char_traitsIcEENS_9allocatorIcEEEERNS4_IS6_EEED2Ev, symObjAddr: 0x903C, symBinAddr: 0x10000D600, symSize: 0x34 }
  - { offset: 0x13012, size: 0x8, addend: 0x0, symName: __ZNSt3__114__split_bufferINS_12basic_stringIcNS_11char_traitsIcEENS_9allocatorIcEEEERNS4_IS6_EEED2Ev, symObjAddr: 0x903C, symBinAddr: 0x10000D600, symSize: 0x34 }
  - { offset: 0x1309B, size: 0x8, addend: 0x0, symName: __ZNSt3__16vectorINS_12basic_stringIcNS_11char_traitsIcEENS_9allocatorIcEEEENS4_IS6_EEE20__throw_length_errorB8ne200100Ev, symObjAddr: 0x8FE4, symBinAddr: 0x10000D5A8, symSize: 0x14 }
  - { offset: 0x130B0, size: 0x8, addend: 0x0, symName: __ZNSt3__119__allocate_at_leastB8ne200100INS_9allocatorINS_12basic_stringIcNS_11char_traitsIcEENS1_IcEEEEEEEENS_19__allocation_resultINS_16allocator_traitsIT_E7pointerEEERSA_m, symObjAddr: 0x8FF8, symBinAddr: 0x10000D5BC, symSize: 0x44 }
  - { offset: 0x130D2, size: 0x8, addend: 0x0, symName: __ZNK14TextJsonObject10get_objectENSt3__117basic_string_viewIcNS0_11char_traitsIcEEEE, symObjAddr: 0x3830, symBinAddr: 0x1000086F0, symSize: 0x64 }
  - { offset: 0x13199, size: 0x8, addend: 0x0, symName: __ZN10TextJsonIn10get_objectEv, symObjAddr: 0x3894, symBinAddr: 0x100008754, symSize: 0xC }
  - { offset: 0x131D3, size: 0x8, addend: 0x0, symName: __ZNK14TextJsonObject8has_nullENSt3__117basic_string_viewIcNS0_11char_traitsIcEEEE, symObjAddr: 0x38A0, symBinAddr: 0x100008760, symSize: 0x54 }
  - { offset: 0x13237, size: 0x8, addend: 0x0, symName: __ZN10TextJsonIn9test_nullEv, symObjAddr: 0x38F4, symBinAddr: 0x1000087B4, symSize: 0x34 }
  - { offset: 0x13271, size: 0x8, addend: 0x0, symName: __ZNK14TextJsonObject8has_boolENSt3__117basic_string_viewIcNS0_11char_traitsIcEEEE, symObjAddr: 0x3928, symBinAddr: 0x1000087E8, symSize: 0x5C }
  - { offset: 0x132D5, size: 0x8, addend: 0x0, symName: __ZN10TextJsonIn9test_boolEv, symObjAddr: 0x3984, symBinAddr: 0x100008844, symSize: 0x3C }
  - { offset: 0x13309, size: 0x8, addend: 0x0, symName: __ZNK14TextJsonObject10has_numberENSt3__117basic_string_viewIcNS0_11char_traitsIcEEEE, symObjAddr: 0x39C0, symBinAddr: 0x100008880, symSize: 0x44 }
  - { offset: 0x13342, size: 0x8, addend: 0x0, symName: __ZN10TextJsonIn11test_numberEv, symObjAddr: 0x3A04, symBinAddr: 0x1000088C4, symSize: 0x60 }
  - { offset: 0x13376, size: 0x8, addend: 0x0, symName: __ZNK14TextJsonObject10has_stringENSt3__117basic_string_viewIcNS0_11char_traitsIcEEEE, symObjAddr: 0x3A64, symBinAddr: 0x100008924, symSize: 0x54 }
  - { offset: 0x133DA, size: 0x8, addend: 0x0, symName: __ZN10TextJsonIn11test_stringEv, symObjAddr: 0x3AB8, symBinAddr: 0x100008978, symSize: 0x34 }
  - { offset: 0x1340E, size: 0x8, addend: 0x0, symName: __ZN10TextJsonIn10test_arrayEv, symObjAddr: 0x3AEC, symBinAddr: 0x1000089AC, symSize: 0x34 }
  - { offset: 0x13448, size: 0x8, addend: 0x0, symName: __ZNK14TextJsonObject10has_objectENSt3__117basic_string_viewIcNS0_11char_traitsIcEEEE, symObjAddr: 0x3B20, symBinAddr: 0x1000089E0, symSize: 0x54 }
  - { offset: 0x134AC, size: 0x8, addend: 0x0, symName: __ZN10TextJsonIn11test_objectEv, symObjAddr: 0x3B74, symBinAddr: 0x100008A34, symSize: 0x34 }
  - { offset: 0x13522, size: 0x8, addend: 0x0, symName: __ZN10TextJsonIn11start_arrayEv, symObjAddr: 0x3CAC, symBinAddr: 0x100008B6C, symSize: 0xEC }
  - { offset: 0x136BD, size: 0x8, addend: 0x0, symName: __ZN10TextJsonIn9end_arrayEv, symObjAddr: 0x3D98, symBinAddr: 0x100008C58, symSize: 0xA8 }
  - { offset: 0x137FA, size: 0x8, addend: 0x0, symName: __ZNSt3__16vectorImNS_9allocatorImEEE9push_backB8ne200100EOm, symObjAddr: 0x3E40, symBinAddr: 0x100008D00, symSize: 0xDC }
  - { offset: 0x139B5, size: 0x8, addend: 0x0, symName: __ZN13TextJsonArrayC2ERKS_, symObjAddr: 0x3F1C, symBinAddr: 0x100008DDC, symSize: 0x48 }
  - { offset: 0x13A13, size: 0x8, addend: 0x0, symName: __ZNSt3__119__allocate_at_leastB8ne200100INS_9allocatorImEEEENS_19__allocation_resultINS_16allocator_traitsIT_E7pointerEEERS5_m, symObjAddr: 0xC320, symBinAddr: 0x10000F244, symSize: 0x34 }
  - { offset: 0x13A5E, size: 0x8, addend: 0x0, symName: __ZNSt3__16vectorImNS_9allocatorImEEE18__assign_with_sizeB8ne200100IPmS5_EEvT_T0_l, symObjAddr: 0xC354, symBinAddr: 0x10000F278, symSize: 0x128 }
  - { offset: 0x13A71, size: 0x8, addend: 0x0, symName: __ZNSt3__119__allocate_at_leastB8ne200100INS_9allocatorImEEEENS_19__allocation_resultINS_16allocator_traitsIT_E7pointerEEERS5_m, symObjAddr: 0xC320, symBinAddr: 0x10000F244, symSize: 0x34 }
  - { offset: 0x13A7B, size: 0x8, addend: 0x0, symName: __ZN13TextJsonArrayaSERKS_, symObjAddr: 0x3F64, symBinAddr: 0x100008E24, symSize: 0x64 }
  - { offset: 0x13B08, size: 0x8, addend: 0x0, symName: __ZNSt3__16vectorImNS_9allocatorImEEE18__assign_with_sizeB8ne200100IPmS5_EEvT_T0_l, symObjAddr: 0xC354, symBinAddr: 0x10000F278, symSize: 0x128 }
  - { offset: 0x13EDD, size: 0x8, addend: 0x0, symName: __ZNSt3__16vectorImNS_9allocatorImEEE11__vallocateB8ne200100Em, symObjAddr: 0xC47C, symBinAddr: 0x10000F3A0, symSize: 0x3C }
  - { offset: 0x13EE7, size: 0x8, addend: 0x0, symName: __ZN13TextJsonArrayC1ERKS_, symObjAddr: 0x3FC8, symBinAddr: 0x100008E88, symSize: 0x4 }
  - { offset: 0x13EFC, size: 0x8, addend: 0x0, symName: __ZN13TextJsonArrayC1ERKS_, symObjAddr: 0x3FC8, symBinAddr: 0x100008E88, symSize: 0x4 }
  - { offset: 0x13F06, size: 0x8, addend: 0x0, symName: __ZN13TextJsonArray6finishEv, symObjAddr: 0x3FCC, symBinAddr: 0x100008E8C, symSize: 0x50 }
  - { offset: 0x13F7B, size: 0x8, addend: 0x0, symName: __ZNK13TextJsonArray8has_moreEv, symObjAddr: 0x401C, symBinAddr: 0x100008EDC, symSize: 0x18 }
  - { offset: 0x13FA2, size: 0x8, addend: 0x0, symName: __ZNK13TextJsonArray4sizeEv, symObjAddr: 0x4034, symBinAddr: 0x100008EF4, symSize: 0x10 }
  - { offset: 0x13FB7, size: 0x8, addend: 0x0, symName: __ZNK13TextJsonArray4sizeEv, symObjAddr: 0x4034, symBinAddr: 0x100008EF4, symSize: 0x10 }
  - { offset: 0x13FCF, size: 0x8, addend: 0x0, symName: __ZN13TextJsonArray5emptyEv, symObjAddr: 0x4044, symBinAddr: 0x100008F04, symSize: 0x10 }
  - { offset: 0x13FE4, size: 0x8, addend: 0x0, symName: __ZN13TextJsonArray5emptyEv, symObjAddr: 0x4044, symBinAddr: 0x100008F04, symSize: 0x10 }
  - { offset: 0x13FF6, size: 0x8, addend: 0x0, symName: __ZN13TextJsonArray3strEv, symObjAddr: 0x4054, symBinAddr: 0x100008F14, symSize: 0x2C }
  - { offset: 0x140DD, size: 0x8, addend: 0x0, symName: __ZN13TextJsonArray10next_valueEv, symObjAddr: 0x4330, symBinAddr: 0x10000909C, symSize: 0x8C }
  - { offset: 0x1415F, size: 0x8, addend: 0x0, symName: __ZN10TextJsonIn9get_valueEv, symObjAddr: 0x43BC, symBinAddr: 0x100009128, symSize: 0x64 }
  - { offset: 0x1419C, size: 0x8, addend: 0x0, symName: __ZN13TextJsonArray9next_boolEv, symObjAddr: 0x4420, symBinAddr: 0x10000918C, symSize: 0x44 }
  - { offset: 0x141EA, size: 0x8, addend: 0x0, symName: __ZN13TextJsonArray8next_intEv, symObjAddr: 0x4464, symBinAddr: 0x1000091D0, symSize: 0x44 }
  - { offset: 0x14238, size: 0x8, addend: 0x0, symName: __ZN13TextJsonArray10next_floatEv, symObjAddr: 0x44A8, symBinAddr: 0x100009214, symSize: 0x80 }
  - { offset: 0x142C6, size: 0x8, addend: 0x0, symName: __ZN13TextJsonArray11next_stringEv, symObjAddr: 0x4528, symBinAddr: 0x100009294, symSize: 0x4C }
  - { offset: 0x1431A, size: 0x8, addend: 0x0, symName: __ZN13TextJsonArray10next_arrayEv, symObjAddr: 0x4574, symBinAddr: 0x1000092E0, symSize: 0x4C }
  - { offset: 0x14393, size: 0x8, addend: 0x0, symName: __ZN10TextJsonIn9get_arrayEv, symObjAddr: 0x45C0, symBinAddr: 0x10000932C, symSize: 0xC }
  - { offset: 0x143C7, size: 0x8, addend: 0x0, symName: __ZN13TextJsonArray11next_objectEv, symObjAddr: 0x45CC, symBinAddr: 0x100009338, symSize: 0x4C }
  - { offset: 0x14440, size: 0x8, addend: 0x0, symName: __ZN13TextJsonArray10skip_valueEv, symObjAddr: 0x4618, symBinAddr: 0x100009384, symSize: 0x30 }
  - { offset: 0x1445F, size: 0x8, addend: 0x0, symName: __ZNK13TextJsonArray8get_boolEm, symObjAddr: 0x4648, symBinAddr: 0x1000093B4, symSize: 0x38 }
  - { offset: 0x144AD, size: 0x8, addend: 0x0, symName: __ZNK13TextJsonArray7get_intEm, symObjAddr: 0x4680, symBinAddr: 0x1000093EC, symSize: 0x38 }
  - { offset: 0x144FB, size: 0x8, addend: 0x0, symName: __ZNK13TextJsonArray9get_floatEm, symObjAddr: 0x46B8, symBinAddr: 0x100009424, symSize: 0x74 }
  - { offset: 0x14589, size: 0x8, addend: 0x0, symName: __ZNK13TextJsonArray10get_stringEm, symObjAddr: 0x472C, symBinAddr: 0x100009498, symSize: 0x48 }
  - { offset: 0x145D7, size: 0x8, addend: 0x0, symName: __ZNK13TextJsonArray9get_arrayEm, symObjAddr: 0x4774, symBinAddr: 0x1000094E0, symSize: 0x48 }
  - { offset: 0x14650, size: 0x8, addend: 0x0, symName: __ZNK13TextJsonArray10get_objectEm, symObjAddr: 0x47BC, symBinAddr: 0x100009528, symSize: 0x48 }
  - { offset: 0x146CF, size: 0x8, addend: 0x0, symName: __ZNK13TextJsonArray9test_nullEv, symObjAddr: 0x4804, symBinAddr: 0x100009570, symSize: 0x64 }
  - { offset: 0x146E4, size: 0x8, addend: 0x0, symName: __ZNK13TextJsonArray9test_nullEv, symObjAddr: 0x4804, symBinAddr: 0x100009570, symSize: 0x64 }
  - { offset: 0x14751, size: 0x8, addend: 0x0, symName: __ZNK13TextJsonArray9test_boolEv, symObjAddr: 0x4868, symBinAddr: 0x1000095D4, symSize: 0x6C }
  - { offset: 0x14766, size: 0x8, addend: 0x0, symName: __ZNK13TextJsonArray9test_boolEv, symObjAddr: 0x4868, symBinAddr: 0x1000095D4, symSize: 0x6C }
  - { offset: 0x147D3, size: 0x8, addend: 0x0, symName: __ZNK13TextJsonArray11test_numberEv, symObjAddr: 0x48D4, symBinAddr: 0x100009640, symSize: 0x48 }
  - { offset: 0x147E8, size: 0x8, addend: 0x0, symName: __ZNK13TextJsonArray11test_numberEv, symObjAddr: 0x48D4, symBinAddr: 0x100009640, symSize: 0x48 }
  - { offset: 0x1482A, size: 0x8, addend: 0x0, symName: __ZNK13TextJsonArray11test_stringEv, symObjAddr: 0x491C, symBinAddr: 0x100009688, symSize: 0x64 }
  - { offset: 0x1483F, size: 0x8, addend: 0x0, symName: __ZNK13TextJsonArray11test_stringEv, symObjAddr: 0x491C, symBinAddr: 0x100009688, symSize: 0x64 }
  - { offset: 0x148B2, size: 0x8, addend: 0x0, symName: __ZNK13TextJsonArray11test_bitsetEv, symObjAddr: 0x4980, symBinAddr: 0x1000096EC, symSize: 0x64 }
  - { offset: 0x148C7, size: 0x8, addend: 0x0, symName: __ZNK13TextJsonArray11test_bitsetEv, symObjAddr: 0x4980, symBinAddr: 0x1000096EC, symSize: 0x64 }
  - { offset: 0x14934, size: 0x8, addend: 0x0, symName: __ZN10TextJsonIn11test_bitsetEv, symObjAddr: 0x49E4, symBinAddr: 0x100009750, symSize: 0x34 }
  - { offset: 0x14968, size: 0x8, addend: 0x0, symName: __ZNK13TextJsonArray10test_arrayEv, symObjAddr: 0x4A18, symBinAddr: 0x100009784, symSize: 0x64 }
  - { offset: 0x1497D, size: 0x8, addend: 0x0, symName: __ZNK13TextJsonArray10test_arrayEv, symObjAddr: 0x4A18, symBinAddr: 0x100009784, symSize: 0x64 }
  - { offset: 0x149EA, size: 0x8, addend: 0x0, symName: __ZNK13TextJsonArray11test_objectEv, symObjAddr: 0x4A7C, symBinAddr: 0x1000097E8, symSize: 0x64 }
  - { offset: 0x149FF, size: 0x8, addend: 0x0, symName: __ZNK13TextJsonArray11test_objectEv, symObjAddr: 0x4A7C, symBinAddr: 0x1000097E8, symSize: 0x64 }
  - { offset: 0x14A6C, size: 0x8, addend: 0x0, symName: __ZNK13TextJsonArray8has_nullEm, symObjAddr: 0x4AE0, symBinAddr: 0x10000984C, symSize: 0x54 }
  - { offset: 0x14AE5, size: 0x8, addend: 0x0, symName: __ZNK13TextJsonArray8has_boolEm, symObjAddr: 0x4B34, symBinAddr: 0x1000098A0, symSize: 0x5C }
  - { offset: 0x14B5E, size: 0x8, addend: 0x0, symName: __ZNK13TextJsonArray10has_numberEm, symObjAddr: 0x4B90, symBinAddr: 0x1000098FC, symSize: 0x38 }
  - { offset: 0x14BAC, size: 0x8, addend: 0x0, symName: __ZNK13TextJsonArray10has_stringEm, symObjAddr: 0x4BC8, symBinAddr: 0x100009934, symSize: 0x54 }
  - { offset: 0x14C25, size: 0x8, addend: 0x0, symName: __ZNK13TextJsonArray9has_arrayEm, symObjAddr: 0x4C1C, symBinAddr: 0x100009988, symSize: 0x54 }
  - { offset: 0x14C9E, size: 0x8, addend: 0x0, symName: __ZNK13TextJsonArray10has_objectEm, symObjAddr: 0x4C70, symBinAddr: 0x1000099DC, symSize: 0x54 }
  - { offset: 0x14D23, size: 0x8, addend: 0x0, symName: __Z16add_array_to_setRNSt3__13setINS_12basic_stringIcNS_11char_traitsIcEENS_9allocatorIcEEEENS_4lessIS6_EENS4_IS6_EEEERK14TextJsonObjectNS_17basic_string_viewIcS3_EE, symObjAddr: 0x4CC4, symBinAddr: 0x100009A30, symSize: 0x13C }
  - { offset: 0x151CC, size: 0x8, addend: 0x0, symName: __ZNSt3__16__treeINS_12basic_stringIcNS_11char_traitsIcEENS_9allocatorIcEEEENS_4lessIS6_EENS4_IS6_EEE25__emplace_unique_key_argsIS6_JRKS6_EEENS_4pairINS_15__tree_iteratorIS6_PNS_11__tree_nodeIS6_PvEElEEbEERKT_DpOT0_, symObjAddr: 0x975C, symBinAddr: 0x10000D970, symSize: 0x7C }
  - { offset: 0x1522F, size: 0x8, addend: 0x0, symName: __ZN10TextJsonInC2ERNSt3__113basic_istreamIcNS0_11char_traitsIcEEEE, symObjAddr: 0x4E00, symBinAddr: 0x100009B6C, symSize: 0x4C }
  - { offset: 0x15270, size: 0x8, addend: 0x0, symName: __ZN10TextJsonIn19sanity_check_streamEv, symObjAddr: 0x4E4C, symBinAddr: 0x100009BB8, symSize: 0x74 }
  - { offset: 0x1535C, size: 0x8, addend: 0x0, symName: __ZN10TextJsonInC1ERNSt3__113basic_istreamIcNS0_11char_traitsIcEEEE, symObjAddr: 0x4EC0, symBinAddr: 0x100009C2C, symSize: 0x4 }
  - { offset: 0x15371, size: 0x8, addend: 0x0, symName: __ZN10TextJsonInC1ERNSt3__113basic_istreamIcNS0_11char_traitsIcEEEE, symObjAddr: 0x4EC0, symBinAddr: 0x100009C2C, symSize: 0x4 }
  - { offset: 0x15387, size: 0x8, addend: 0x0, symName: __ZN10TextJsonInC2ERNSt3__113basic_istreamIcNS0_11char_traitsIcEEEERKNS0_12basic_stringIcS3_NS0_9allocatorIcEEEE, symObjAddr: 0x4EC4, symBinAddr: 0x100009C30, symSize: 0x5C }
  - { offset: 0x153FF, size: 0x8, addend: 0x0, symName: __ZNSt3__115allocate_sharedB8ne200100INS_12basic_stringIcNS_11char_traitsIcEENS_9allocatorIcEEEENS4_IS6_EEJRKS6_ELi0EEENS_10shared_ptrIT_EERKT0_DpOT1_, symObjAddr: 0xC4B8, symBinAddr: 0x10000F3DC, symSize: 0x58 }
  - { offset: 0x15570, size: 0x8, addend: 0x0, symName: __ZN10TextJsonInC1ERNSt3__113basic_istreamIcNS0_11char_traitsIcEEEERKNS0_12basic_stringIcS3_NS0_9allocatorIcEEEE, symObjAddr: 0x4F20, symBinAddr: 0x100009C8C, symSize: 0x4 }
  - { offset: 0x15585, size: 0x8, addend: 0x0, symName: __ZN10TextJsonInC1ERNSt3__113basic_istreamIcNS0_11char_traitsIcEEEERKNS0_12basic_stringIcS3_NS0_9allocatorIcEEEE, symObjAddr: 0x4F20, symBinAddr: 0x100009C8C, symSize: 0x4 }
  - { offset: 0x1558F, size: 0x8, addend: 0x0, symName: __ZN10TextJsonInC2ERNSt3__113basic_istreamIcNS0_11char_traitsIcEEEERK20json_source_location, symObjAddr: 0x4F24, symBinAddr: 0x100009C90, symSize: 0x70 }
  - { offset: 0x15648, size: 0x8, addend: 0x0, symName: __ZN10TextJsonInC1ERNSt3__113basic_istreamIcNS0_11char_traitsIcEEEERK20json_source_location, symObjAddr: 0x4F94, symBinAddr: 0x100009D00, symSize: 0x4 }
  - { offset: 0x1565D, size: 0x8, addend: 0x0, symName: __ZN10TextJsonInC1ERNSt3__113basic_istreamIcNS0_11char_traitsIcEEEERK20json_source_location, symObjAddr: 0x4F94, symBinAddr: 0x100009D00, symSize: 0x4 }
  - { offset: 0x15667, size: 0x8, addend: 0x0, symName: __ZN10TextJsonIn4peekEv, symObjAddr: 0x4F98, symBinAddr: 0x100009D04, symSize: 0x1C }
  - { offset: 0x1567E, size: 0x8, addend: 0x0, symName: __ZN10TextJsonIn9end_valueEv, symObjAddr: 0x50DC, symBinAddr: 0x100009E48, symSize: 0x8 }
  - { offset: 0x156A3, size: 0x8, addend: 0x0, symName: __ZN10TextJsonIn11skip_memberEv, symObjAddr: 0x52C0, symBinAddr: 0x10000A02C, symSize: 0x2C }
  - { offset: 0x156F4, size: 0x8, addend: 0x0, symName: __ZN10TextJsonIn8get_uintEv, symObjAddr: 0x64C4, symBinAddr: 0x10000B230, symSize: 0x134 }
  - { offset: 0x15ABC, size: 0x8, addend: 0x0, symName: __ZN10TextJsonIn9get_int64Ev, symObjAddr: 0x65F8, symBinAddr: 0x10000B364, symSize: 0x188 }
  - { offset: 0x15C94, size: 0x8, addend: 0x0, symName: __ZN10TextJsonIn10get_uint64Ev, symObjAddr: 0x6780, symBinAddr: 0x10000B4EC, symSize: 0x78 }
  - { offset: 0x15D99, size: 0x8, addend: 0x0, symName: __ZN10TextJsonIn9read_nullEb, symObjAddr: 0x67F8, symBinAddr: 0x10000B564, symSize: 0x234 }
  - { offset: 0x162CD, size: 0x8, addend: 0x0, symName: __ZN10TextJsonIn14error_or_falseEbRKNSt3__112basic_stringIcNS0_11char_traitsIcEENS0_9allocatorIcEEEE, symObjAddr: 0x6A2C, symBinAddr: 0x10000B798, symSize: 0x1C }
  - { offset: 0x162EF, size: 0x8, addend: 0x0, symName: __ZN10TextJsonIn4readERbb, symObjAddr: 0x6A48, symBinAddr: 0x10000B7B4, symSize: 0xC8 }
  - { offset: 0x162F9, size: 0x8, addend: 0x0, symName: __ZN10TextJsonIn4readERbb, symObjAddr: 0x6A48, symBinAddr: 0x10000B7B4, symSize: 0xC8 }
  - { offset: 0x164E8, size: 0x8, addend: 0x0, symName: __ZN10TextJsonIn4readERcb, symObjAddr: 0x6B10, symBinAddr: 0x10000B87C, symSize: 0xA8 }
  - { offset: 0x166B4, size: 0x8, addend: 0x0, symName: __ZN10TextJsonIn4readERab, symObjAddr: 0x6BB8, symBinAddr: 0x10000B924, symSize: 0xA8 }
  - { offset: 0x16880, size: 0x8, addend: 0x0, symName: __ZN10TextJsonIn4readERhb, symObjAddr: 0x6C60, symBinAddr: 0x10000B9CC, symSize: 0xA8 }
  - { offset: 0x16A4C, size: 0x8, addend: 0x0, symName: __ZN10TextJsonIn4readERtb, symObjAddr: 0x6D08, symBinAddr: 0x10000BA74, symSize: 0xA8 }
  - { offset: 0x16C18, size: 0x8, addend: 0x0, symName: __ZN10TextJsonIn4readERsb, symObjAddr: 0x6DB0, symBinAddr: 0x10000BB1C, symSize: 0xA8 }
  - { offset: 0x16DE4, size: 0x8, addend: 0x0, symName: __ZN10TextJsonIn4readERib, symObjAddr: 0x6E58, symBinAddr: 0x10000BBC4, symSize: 0xA8 }
  - { offset: 0x16FB0, size: 0x8, addend: 0x0, symName: __ZN10TextJsonIn4readERxb, symObjAddr: 0x6F00, symBinAddr: 0x10000BC6C, symSize: 0xA8 }
  - { offset: 0x1717C, size: 0x8, addend: 0x0, symName: __ZN10TextJsonIn4readERyb, symObjAddr: 0x6FA8, symBinAddr: 0x10000BD14, symSize: 0xA8 }
  - { offset: 0x17348, size: 0x8, addend: 0x0, symName: __ZN10TextJsonIn4readERjb, symObjAddr: 0x7050, symBinAddr: 0x10000BDBC, symSize: 0xA8 }
  - { offset: 0x17514, size: 0x8, addend: 0x0, symName: __ZN10TextJsonIn4readERfb, symObjAddr: 0x70F8, symBinAddr: 0x10000BE64, symSize: 0xDC }
  - { offset: 0x17720, size: 0x8, addend: 0x0, symName: __ZN10TextJsonIn4readERdb, symObjAddr: 0x71D4, symBinAddr: 0x10000BF40, symSize: 0xD8 }
  - { offset: 0x1792C, size: 0x8, addend: 0x0, symName: __ZN10TextJsonIn4readERNSt3__112basic_stringIcNS0_11char_traitsIcEENS0_9allocatorIcEEEEb, symObjAddr: 0x72AC, symBinAddr: 0x10000C018, symSize: 0xD8 }
  - { offset: 0x17BD9, size: 0x8, addend: 0x0, symName: __ZN10TextJsonIn14error_or_falseEbiRKNSt3__112basic_stringIcNS0_11char_traitsIcEENS0_9allocatorIcEEEE, symObjAddr: 0x78D0, symBinAddr: 0x10000C63C, symSize: 0x20 }
  - { offset: 0x17BEE, size: 0x8, addend: 0x0, symName: __ZN7JsonOutC2ERNSt3__113basic_ostreamIcNS0_11char_traitsIcEEEEbi, symObjAddr: 0x78F0, symBinAddr: 0x10000C65C, symSize: 0x160 }
  - { offset: 0x17C40, size: 0x8, addend: 0x0, symName: __ZN7JsonOutC2ERNSt3__113basic_ostreamIcNS0_11char_traitsIcEEEEbi, symObjAddr: 0x78F0, symBinAddr: 0x10000C65C, symSize: 0x160 }
  - { offset: 0x17DEA, size: 0x8, addend: 0x0, symName: __ZN7JsonOutC1ERNSt3__113basic_ostreamIcNS0_11char_traitsIcEEEEbi, symObjAddr: 0x7A50, symBinAddr: 0x10000C7BC, symSize: 0x4 }
  - { offset: 0x17DFF, size: 0x8, addend: 0x0, symName: __ZN7JsonOutC1ERNSt3__113basic_ostreamIcNS0_11char_traitsIcEEEEbi, symObjAddr: 0x7A50, symBinAddr: 0x10000C7BC, symSize: 0x4 }
  - { offset: 0x17E15, size: 0x8, addend: 0x0, symName: __ZN7JsonOut4tellEv, symObjAddr: 0x7A54, symBinAddr: 0x10000C7C0, symSize: 0x90 }
  - { offset: 0x17EBB, size: 0x8, addend: 0x0, symName: __ZN7JsonOut4seekEi, symObjAddr: 0x7AE4, symBinAddr: 0x10000C850, symSize: 0x12C }
  - { offset: 0x17F9C, size: 0x8, addend: 0x0, symName: __ZN7JsonOut12write_indentEv, symObjAddr: 0x7C10, symBinAddr: 0x10000C97C, symSize: 0x5C }
  - { offset: 0x17FE5, size: 0x8, addend: 0x0, symName: __ZNSt3__116ostream_iteratorIccNS_11char_traitsIcEEEaSB8ne200100ERKc, symObjAddr: 0xC7E8, symBinAddr: 0x10000F624, symSize: 0x6C }
  - { offset: 0x18083, size: 0x8, addend: 0x0, symName: __ZN7JsonOut15write_separatorEv, symObjAddr: 0x7C6C, symBinAddr: 0x10000C9D8, symSize: 0x90 }
  - { offset: 0x180E2, size: 0x8, addend: 0x0, symName: __ZN7JsonOut22write_member_separatorEv, symObjAddr: 0x7CFC, symBinAddr: 0x10000CA68, symSize: 0x4C }
  - { offset: 0x180F3, size: 0x8, addend: 0x0, symName: __ZN7JsonOut12start_prettyEv, symObjAddr: 0x7D48, symBinAddr: 0x10000CAB4, symSize: 0x88 }
  - { offset: 0x18152, size: 0x8, addend: 0x0, symName: __ZN7JsonOut10end_prettyEv, symObjAddr: 0x7DD0, symBinAddr: 0x10000CB3C, symSize: 0x88 }
  - { offset: 0x181B1, size: 0x8, addend: 0x0, symName: __ZN7JsonOut12start_objectEb, symObjAddr: 0x7E58, symBinAddr: 0x10000CBC4, symSize: 0x60 }
  - { offset: 0x181EA, size: 0x8, addend: 0x0, symName: __ZNSt3__16vectorIbNS_9allocatorIbEEE9push_backERKb, symObjAddr: 0x7EB8, symBinAddr: 0x10000CC24, symSize: 0xA4 }
  - { offset: 0x1826F, size: 0x8, addend: 0x0, symName: __ZN7JsonOut10end_objectEv, symObjAddr: 0x7F5C, symBinAddr: 0x10000CCC8, symSize: 0x40 }
  - { offset: 0x1828B, size: 0x8, addend: 0x0, symName: __ZNSt3__16vectorIbNS_9allocatorIbEEE7reserveEm, symObjAddr: 0xC854, symBinAddr: 0x10000F690, symSize: 0xB8 }
  - { offset: 0x18521, size: 0x8, addend: 0x0, symName: __ZNSt3__16vectorIbNS_9allocatorIbEEE11__vallocateB8ne200100Em, symObjAddr: 0xC920, symBinAddr: 0x10000F748, symSize: 0x44 }
  - { offset: 0x18531, size: 0x8, addend: 0x0, symName: __ZN7JsonOut10end_objectEv, symObjAddr: 0x7F5C, symBinAddr: 0x10000CCC8, symSize: 0x40 }
  - { offset: 0x18565, size: 0x8, addend: 0x0, symName: __ZN7JsonOut11start_arrayEb, symObjAddr: 0x7F9C, symBinAddr: 0x10000CD08, symSize: 0x60 }
  - { offset: 0x1859E, size: 0x8, addend: 0x0, symName: __ZN7JsonOut9end_arrayEv, symObjAddr: 0x7FFC, symBinAddr: 0x10000CD68, symSize: 0x40 }
  - { offset: 0x185D2, size: 0x8, addend: 0x0, symName: __ZN7JsonOut10write_nullEv, symObjAddr: 0x803C, symBinAddr: 0x10000CDA8, symSize: 0x4C }
  - { offset: 0x185F1, size: 0x8, addend: 0x0, symName: __ZN7JsonOut5writeENSt3__117basic_string_viewIcNS0_11char_traitsIcEEEE, symObjAddr: 0x8088, symBinAddr: 0x10000CDF4, symSize: 0x1DC }
  - { offset: 0x18610, size: 0x8, addend: 0x0, symName: __ZN7JsonOut6memberENSt3__117basic_string_viewIcNS0_11char_traitsIcEEEE, symObjAddr: 0x8264, symBinAddr: 0x10000CFD0, symSize: 0x24 }
  - { offset: 0x18642, size: 0x8, addend: 0x0, symName: __ZN7JsonOut11null_memberENSt3__117basic_string_viewIcNS0_11char_traitsIcEEEE, symObjAddr: 0x8288, symBinAddr: 0x10000CFF4, symSize: 0x2C }
  - { offset: 0x18690, size: 0x8, addend: 0x0, symName: __ZN9JsonErrorC2ERKNSt3__112basic_stringIcNS0_11char_traitsIcEENS0_9allocatorIcEEEE, symObjAddr: 0x82B4, symBinAddr: 0x10000D020, symSize: 0x24 }
  - { offset: 0x186A1, size: 0x8, addend: 0x0, symName: __ZlsRNSt3__113basic_ostreamIcNS_11char_traitsIcEEEERK9JsonError, symObjAddr: 0x82D8, symBinAddr: 0x10000D044, symSize: 0x40 }
  - { offset: 0x18748, size: 0x8, addend: 0x0, symName: __ZN7JsonOut5writeILm12EEEvRKNSt3__16bitsetIXT_EEE, symObjAddr: 0x8318, symBinAddr: 0x10000D084, symSize: 0x124 }
  - { offset: 0x18A4B, size: 0x8, addend: 0x0, symName: __ZN10TextJsonIn4readILm12EEEbRNSt3__16bitsetIXT_EEEb, symObjAddr: 0x843C, symBinAddr: 0x10000D1A8, symSize: 0x110 }
  - { offset: 0x18BC5, size: 0x8, addend: 0x0, symName: __ZNSt3__16bitsetILm12EEC2B8ne200100IcNS_11char_traitsIcEENS_9allocatorIcEEEERKNS_12basic_stringIT_T0_T1_EENSB_9size_typeESE_S8_S8_, symObjAddr: 0xCB60, symBinAddr: 0x10000F988, symSize: 0x7C }
  - { offset: 0x18C75, size: 0x8, addend: 0x0, symName: __ZNSt3__16bitsetILm12EE23__init_from_string_viewB8ne200100IcNS_11char_traitsIcEEEEvNS_17basic_string_viewIT_T0_EES6_S6_, symObjAddr: 0xCBDC, symBinAddr: 0x10000FA04, symSize: 0xB8 }
  - { offset: 0x18C7F, size: 0x8, addend: 0x0, symName: __Z10str_appendIJRKNSt3__117basic_string_viewIcNS0_11char_traitsIcEEEERA14_KcNS0_12basic_stringIcS3_NS0_9allocatorIcEEEEEERSD_SE_DpOT_, symObjAddr: 0xCDB4, symBinAddr: 0x10000FBDC, symSize: 0x68 }
  - { offset: 0x18D03, size: 0x8, addend: 0x0, symName: __ZN9JsonErrorD0Ev, symObjAddr: 0x85F8, symBinAddr: 0x10000D364, symSize: 0x14 }
  - { offset: 0x18D6E, size: 0x8, addend: 0x0, symName: __ZNSt3__120__throw_out_of_rangeB8ne200100EPKc, symObjAddr: 0x8D2C, symBinAddr: 0x10000D378, symSize: 0x50 }
  - { offset: 0x18D8D, size: 0x8, addend: 0x0, symName: __ZNSt12out_of_rangeC1B8ne200100EPKc, symObjAddr: 0x8D7C, symBinAddr: 0x10000D3C8, symSize: 0x24 }
  - { offset: 0x18DF3, size: 0x8, addend: 0x0, symName: __ZSt28__throw_bad_array_new_lengthB8ne200100v, symObjAddr: 0x8E28, symBinAddr: 0x10000D3EC, symSize: 0x28 }
  - { offset: 0x18E40, size: 0x8, addend: 0x0, symName: __ZNSt3__114__split_bufferINS_12basic_stringIcNS_11char_traitsIcEENS_9allocatorIcEEEERNS4_IS6_EEE17__destruct_at_endB8ne200100EPS6_, symObjAddr: 0x9070, symBinAddr: 0x10000D634, symSize: 0x54 }
  - { offset: 0x18E55, size: 0x8, addend: 0x0, symName: __ZNSt3__114__split_bufferINS_12basic_stringIcNS_11char_traitsIcEENS_9allocatorIcEEEERNS4_IS6_EEE17__destruct_at_endB8ne200100EPS6_, symObjAddr: 0x9070, symBinAddr: 0x10000D634, symSize: 0x54 }
  - { offset: 0x18F43, size: 0x8, addend: 0x0, symName: __ZTv0_n24_NSt3__119basic_ostringstreamIcNS_11char_traitsIcEENS_9allocatorIcEEED1Ev, symObjAddr: 0x90C4, symBinAddr: 0x10000D688, symSize: 0x8C }
  - { offset: 0x19042, size: 0x8, addend: 0x0, symName: __ZNSt3__119basic_ostringstreamIcNS_11char_traitsIcEENS_9allocatorIcEEED0Ev, symObjAddr: 0x9150, symBinAddr: 0x10000D714, symSize: 0x8C }
  - { offset: 0x1915C, size: 0x8, addend: 0x0, symName: __ZTv0_n24_NSt3__119basic_ostringstreamIcNS_11char_traitsIcEENS_9allocatorIcEEED0Ev, symObjAddr: 0x91DC, symBinAddr: 0x10000D7A0, symSize: 0x94 }
  - { offset: 0x1942C, size: 0x8, addend: 0x0, symName: __ZNSt3__16vectorINS_12basic_stringIcNS_11char_traitsIcEENS_9allocatorIcEEEENS4_IS6_EEE16__destroy_vectorclB8ne200100Ev, symObjAddr: 0x96D0, symBinAddr: 0x10000D8E4, symSize: 0x40 }
  - { offset: 0x1943C, size: 0x8, addend: 0x0, symName: __ZNSt3__16vectorINS_12basic_stringIcNS_11char_traitsIcEENS_9allocatorIcEEEENS4_IS6_EEE5clearB8ne200100Ev, symObjAddr: 0x9710, symBinAddr: 0x10000D924, symSize: 0x4C }
  - { offset: 0x19564, size: 0x8, addend: 0x0, symName: __ZNSt3__16__treeINS_12basic_stringIcNS_11char_traitsIcEENS_9allocatorIcEEEENS_4lessIS6_EENS4_IS6_EEE16__construct_nodeIJRKS6_EEENS_10unique_ptrINS_11__tree_nodeIS6_PvEENS_22__tree_node_destructorINS4_ISH_EEEEEEDpOT_, symObjAddr: 0x9870, symBinAddr: 0x10000D9EC, symSize: 0x9C }
  - { offset: 0x197D1, size: 0x8, addend: 0x0, symName: __ZNSt3__122__tree_node_destructorINS_9allocatorINS_11__tree_nodeINS_12basic_stringIcNS_11char_traitsIcEENS1_IcEEEEPvEEEEEclB8ne200100EPS9_, symObjAddr: 0x9B64, symBinAddr: 0x10000DA88, symSize: 0x50 }
  - { offset: 0x19BC5, size: 0x8, addend: 0x0, symName: __ZNSt3__16vectorINS_4pairINS_12basic_stringIcNS_11char_traitsIcEENS_9allocatorIcEEEEN5units8quantityIxNS8_24energy_in_millijoule_tagEEEEENS5_ISC_EEE16__init_with_sizeB8ne200100IPKSC_SH_EEvT_T0_m, symObjAddr: 0x9E58, symBinAddr: 0x10000DAD8, symSize: 0x84 }
  - { offset: 0x19D0B, size: 0x8, addend: 0x0, symName: __ZNSt3__16vectorINS_4pairINS_12basic_stringIcNS_11char_traitsIcEENS_9allocatorIcEEEEN5units8quantityIxNS8_24energy_in_millijoule_tagEEEEENS5_ISC_EEE11__vallocateB8ne200100Em, symObjAddr: 0x9EDC, symBinAddr: 0x10000DB5C, symSize: 0x3C }
  - { offset: 0x19D37, size: 0x8, addend: 0x0, symName: __ZNSt3__135__uninitialized_allocator_copy_implB8ne200100INS_9allocatorINS_4pairINS_12basic_stringIcNS_11char_traitsIcEENS1_IcEEEEN5units8quantityIxNS8_24energy_in_millijoule_tagEEEEEEEPKSC_SF_PSC_EET2_RT_T0_T1_SH_, symObjAddr: 0x9F60, symBinAddr: 0x10000DBCC, symSize: 0xC8 }
  - { offset: 0x19E79, size: 0x8, addend: 0x0, symName: __ZNSt3__119__allocate_at_leastB8ne200100INS_9allocatorINS_4pairINS_12basic_stringIcNS_11char_traitsIcEENS1_IcEEEEN5units8quantityIxNS8_24energy_in_millijoule_tagEEEEEEEEENS_19__allocation_resultINS_16allocator_traitsIT_E7pointerEEERSG_m, symObjAddr: 0x9F2C, symBinAddr: 0x10000DB98, symSize: 0x34 }
  - { offset: 0x19EC4, size: 0x8, addend: 0x0, symName: __ZNSt3__135__uninitialized_allocator_copy_implB8ne200100INS_9allocatorINS_4pairINS_12basic_stringIcNS_11char_traitsIcEENS1_IcEEEEN5units8quantityIxNS8_24energy_in_millijoule_tagEEEEEEEPKSC_SF_PSC_EET2_RT_T0_T1_SH_, symObjAddr: 0x9F60, symBinAddr: 0x10000DBCC, symSize: 0xC8 }
  - { offset: 0x19ED7, size: 0x8, addend: 0x0, symName: __ZNSt3__119__allocate_at_leastB8ne200100INS_9allocatorINS_4pairINS_12basic_stringIcNS_11char_traitsIcEENS1_IcEEEEN5units8quantityIxNS8_24energy_in_millijoule_tagEEEEEEEEENS_19__allocation_resultINS_16allocator_traitsIT_E7pointerEEERSG_m, symObjAddr: 0x9F2C, symBinAddr: 0x10000DB98, symSize: 0x34 }
  - { offset: 0x19F29, size: 0x8, addend: 0x0, symName: __ZNSt3__128__exception_guard_exceptionsINS_29_AllocatorDestroyRangeReverseINS_9allocatorINS_4pairINS_12basic_stringIcNS_11char_traitsIcEENS2_IcEEEEN5units8quantityIxNS9_24energy_in_millijoule_tagEEEEEEEPSD_EEED2B8ne200100Ev, symObjAddr: 0xA028, symBinAddr: 0x10000DC94, symSize: 0x34 }
  - { offset: 0x19F48, size: 0x8, addend: 0x0, symName: __ZNKSt3__129_AllocatorDestroyRangeReverseINS_9allocatorINS_4pairINS_12basic_stringIcNS_11char_traitsIcEENS1_IcEEEEN5units8quantityIxNS8_24energy_in_millijoule_tagEEEEEEEPSC_EclB8ne200100Ev, symObjAddr: 0xA05C, symBinAddr: 0x10000DCC8, symSize: 0x44 }
  - { offset: 0x1A0E2, size: 0x8, addend: 0x0, symName: __ZNSt3__16vectorINS_4pairINS_12basic_stringIcNS_11char_traitsIcEENS_9allocatorIcEEEEN5units8quantityIxNS8_24energy_in_millijoule_tagEEEEENS5_ISC_EEE5clearB8ne200100Ev, symObjAddr: 0xA0E0, symBinAddr: 0x10000DD4C, symSize: 0x4C }
  - { offset: 0x1A23D, size: 0x8, addend: 0x0, symName: __ZNSt3__16vectorINS_4pairINS_12basic_stringIcNS_11char_traitsIcEENS_9allocatorIcEEEEN5units8quantityIxNS8_22power_in_milliwatt_tagEEEEENS5_ISC_EEE16__init_with_sizeB8ne200100IPKSC_SH_EEvT_T0_m, symObjAddr: 0xA12C, symBinAddr: 0x10000DD98, symSize: 0x84 }
  - { offset: 0x1A3A3, size: 0x8, addend: 0x0, symName: __ZNSt3__135__uninitialized_allocator_copy_implB8ne200100INS_9allocatorINS_4pairINS_12basic_stringIcNS_11char_traitsIcEENS1_IcEEEEN5units8quantityIxNS8_22power_in_milliwatt_tagEEEEEEEPKSC_SF_PSC_EET2_RT_T0_T1_SH_, symObjAddr: 0xA234, symBinAddr: 0x10000DE1C, symSize: 0xC8 }
  - { offset: 0x1A508, size: 0x8, addend: 0x0, symName: __ZNSt3__135__uninitialized_allocator_copy_implB8ne200100INS_9allocatorINS_4pairINS_12basic_stringIcNS_11char_traitsIcEENS1_IcEEEEN5units8quantityIxNS8_22power_in_milliwatt_tagEEEEEEEPKSC_SF_PSC_EET2_RT_T0_T1_SH_, symObjAddr: 0xA234, symBinAddr: 0x10000DE1C, symSize: 0xC8 }
  - { offset: 0x1A56D, size: 0x8, addend: 0x0, symName: __ZNSt3__128__exception_guard_exceptionsINS_29_AllocatorDestroyRangeReverseINS_9allocatorINS_4pairINS_12basic_stringIcNS_11char_traitsIcEENS2_IcEEEEN5units8quantityIxNS9_22power_in_milliwatt_tagEEEEEEEPSD_EEED2B8ne200100Ev, symObjAddr: 0xA2FC, symBinAddr: 0x10000DEE4, symSize: 0x34 }
  - { offset: 0x1A755, size: 0x8, addend: 0x0, symName: __ZNSt3__16vectorINS_4pairINS_12basic_stringIcNS_11char_traitsIcEENS_9allocatorIcEEEEN5units8quantityIxNS8_21mass_in_milligram_tagEEEEENS5_ISC_EEE16__init_with_sizeB8ne200100IPKSC_SH_EEvT_T0_m, symObjAddr: 0xA400, symBinAddr: 0x10000DF18, symSize: 0x84 }
  - { offset: 0x1A8BB, size: 0x8, addend: 0x0, symName: __ZNSt3__135__uninitialized_allocator_copy_implB8ne200100INS_9allocatorINS_4pairINS_12basic_stringIcNS_11char_traitsIcEENS1_IcEEEEN5units8quantityIxNS8_21mass_in_milligram_tagEEEEEEEPKSC_SF_PSC_EET2_RT_T0_T1_SH_, symObjAddr: 0xA508, symBinAddr: 0x10000DF9C, symSize: 0xC8 }
  - { offset: 0x1AA20, size: 0x8, addend: 0x0, symName: __ZNSt3__135__uninitialized_allocator_copy_implB8ne200100INS_9allocatorINS_4pairINS_12basic_stringIcNS_11char_traitsIcEENS1_IcEEEEN5units8quantityIxNS8_21mass_in_milligram_tagEEEEEEEPKSC_SF_PSC_EET2_RT_T0_T1_SH_, symObjAddr: 0xA508, symBinAddr: 0x10000DF9C, symSize: 0xC8 }
  - { offset: 0x1AA85, size: 0x8, addend: 0x0, symName: __ZNSt3__128__exception_guard_exceptionsINS_29_AllocatorDestroyRangeReverseINS_9allocatorINS_4pairINS_12basic_stringIcNS_11char_traitsIcEENS2_IcEEEEN5units8quantityIxNS9_21mass_in_milligram_tagEEEEEEEPSD_EEED2B8ne200100Ev, symObjAddr: 0xA5D0, symBinAddr: 0x10000E064, symSize: 0x34 }
  - { offset: 0x1AC6D, size: 0x8, addend: 0x0, symName: __ZNSt3__16vectorINS_4pairINS_12basic_stringIcNS_11char_traitsIcEENS_9allocatorIcEEEEN5units8quantityIiNS8_17money_in_cent_tagEEEEENS5_ISC_EEE16__init_with_sizeB8ne200100IPKSC_SH_EEvT_T0_m, symObjAddr: 0xA6D4, symBinAddr: 0x10000E098, symSize: 0x84 }
  - { offset: 0x1ADD3, size: 0x8, addend: 0x0, symName: __ZNSt3__135__uninitialized_allocator_copy_implB8ne200100INS_9allocatorINS_4pairINS_12basic_stringIcNS_11char_traitsIcEENS1_IcEEEEN5units8quantityIiNS8_17money_in_cent_tagEEEEEEEPKSC_SF_PSC_EET2_RT_T0_T1_SH_, symObjAddr: 0xA7DC, symBinAddr: 0x10000E11C, symSize: 0xC8 }
  - { offset: 0x1AF38, size: 0x8, addend: 0x0, symName: __ZNSt3__135__uninitialized_allocator_copy_implB8ne200100INS_9allocatorINS_4pairINS_12basic_stringIcNS_11char_traitsIcEENS1_IcEEEEN5units8quantityIiNS8_17money_in_cent_tagEEEEEEEPKSC_SF_PSC_EET2_RT_T0_T1_SH_, symObjAddr: 0xA7DC, symBinAddr: 0x10000E11C, symSize: 0xC8 }
  - { offset: 0x1AF9D, size: 0x8, addend: 0x0, symName: __ZNSt3__128__exception_guard_exceptionsINS_29_AllocatorDestroyRangeReverseINS_9allocatorINS_4pairINS_12basic_stringIcNS_11char_traitsIcEENS2_IcEEEEN5units8quantityIiNS9_17money_in_cent_tagEEEEEEEPSD_EEED2B8ne200100Ev, symObjAddr: 0xA8A4, symBinAddr: 0x10000E1E4, symSize: 0x34 }
  - { offset: 0x1B185, size: 0x8, addend: 0x0, symName: __ZNSt3__16vectorINS_4pairINS_12basic_stringIcNS_11char_traitsIcEENS_9allocatorIcEEEEN5units8quantityIiNS8_24volume_in_milliliter_tagEEEEENS5_ISC_EEE16__init_with_sizeB8ne200100IPKSC_SH_EEvT_T0_m, symObjAddr: 0xA9A8, symBinAddr: 0x10000E218, symSize: 0x84 }
  - { offset: 0x1B2EB, size: 0x8, addend: 0x0, symName: __ZNSt3__135__uninitialized_allocator_copy_implB8ne200100INS_9allocatorINS_4pairINS_12basic_stringIcNS_11char_traitsIcEENS1_IcEEEEN5units8quantityIiNS8_24volume_in_milliliter_tagEEEEEEEPKSC_SF_PSC_EET2_RT_T0_T1_SH_, symObjAddr: 0xAAB0, symBinAddr: 0x10000E29C, symSize: 0xC8 }
  - { offset: 0x1B450, size: 0x8, addend: 0x0, symName: __ZNSt3__135__uninitialized_allocator_copy_implB8ne200100INS_9allocatorINS_4pairINS_12basic_stringIcNS_11char_traitsIcEENS1_IcEEEEN5units8quantityIiNS8_24volume_in_milliliter_tagEEEEEEEPKSC_SF_PSC_EET2_RT_T0_T1_SH_, symObjAddr: 0xAAB0, symBinAddr: 0x10000E29C, symSize: 0xC8 }
  - { offset: 0x1B4B5, size: 0x8, addend: 0x0, symName: __ZNSt3__128__exception_guard_exceptionsINS_29_AllocatorDestroyRangeReverseINS_9allocatorINS_4pairINS_12basic_stringIcNS_11char_traitsIcEENS2_IcEEEEN5units8quantityIiNS9_24volume_in_milliliter_tagEEEEEEEPSD_EEED2B8ne200100Ev, symObjAddr: 0xAB78, symBinAddr: 0x10000E364, symSize: 0x34 }
  - { offset: 0x1B69D, size: 0x8, addend: 0x0, symName: __ZNSt3__16vectorINS_4pairINS_12basic_stringIcNS_11char_traitsIcEENS_9allocatorIcEEEEN5units8quantityIiNS8_24length_in_millimeter_tagEEEEENS5_ISC_EEE16__init_with_sizeB8ne200100IPKSC_SH_EEvT_T0_m, symObjAddr: 0xAC7C, symBinAddr: 0x10000E398, symSize: 0x84 }
  - { offset: 0x1B803, size: 0x8, addend: 0x0, symName: __ZNSt3__135__uninitialized_allocator_copy_implB8ne200100INS_9allocatorINS_4pairINS_12basic_stringIcNS_11char_traitsIcEENS1_IcEEEEN5units8quantityIiNS8_24length_in_millimeter_tagEEEEEEEPKSC_SF_PSC_EET2_RT_T0_T1_SH_, symObjAddr: 0xAD84, symBinAddr: 0x10000E41C, symSize: 0xC8 }
  - { offset: 0x1B968, size: 0x8, addend: 0x0, symName: __ZNSt3__135__uninitialized_allocator_copy_implB8ne200100INS_9allocatorINS_4pairINS_12basic_stringIcNS_11char_traitsIcEENS1_IcEEEEN5units8quantityIiNS8_24length_in_millimeter_tagEEEEEEEPKSC_SF_PSC_EET2_RT_T0_T1_SH_, symObjAddr: 0xAD84, symBinAddr: 0x10000E41C, symSize: 0xC8 }
  - { offset: 0x1B9CD, size: 0x8, addend: 0x0, symName: __ZNSt3__128__exception_guard_exceptionsINS_29_AllocatorDestroyRangeReverseINS_9allocatorINS_4pairINS_12basic_stringIcNS_11char_traitsIcEENS2_IcEEEEN5units8quantityIiNS9_24length_in_millimeter_tagEEEEEEEPSD_EEED2B8ne200100Ev, symObjAddr: 0xAE4C, symBinAddr: 0x10000E4E4, symSize: 0x34 }
  - { offset: 0x1BBB5, size: 0x8, addend: 0x0, symName: __ZNSt3__16vectorINS_4pairINS_12basic_stringIcNS_11char_traitsIcEENS_9allocatorIcEEEEN5units8quantityIdNS8_20angle_in_radians_tagEEEEENS5_ISC_EEE16__init_with_sizeB8ne200100IPKSC_SH_EEvT_T0_m, symObjAddr: 0xAF50, symBinAddr: 0x10000E518, symSize: 0x84 }
  - { offset: 0x1BD1B, size: 0x8, addend: 0x0, symName: __ZNSt3__135__uninitialized_allocator_copy_implB8ne200100INS_9allocatorINS_4pairINS_12basic_stringIcNS_11char_traitsIcEENS1_IcEEEEN5units8quantityIdNS8_20angle_in_radians_tagEEEEEEEPKSC_SF_PSC_EET2_RT_T0_T1_SH_, symObjAddr: 0xB058, symBinAddr: 0x10000E59C, symSize: 0xC8 }
  - { offset: 0x1BE80, size: 0x8, addend: 0x0, symName: __ZNSt3__135__uninitialized_allocator_copy_implB8ne200100INS_9allocatorINS_4pairINS_12basic_stringIcNS_11char_traitsIcEENS1_IcEEEEN5units8quantityIdNS8_20angle_in_radians_tagEEEEEEEPKSC_SF_PSC_EET2_RT_T0_T1_SH_, symObjAddr: 0xB058, symBinAddr: 0x10000E59C, symSize: 0xC8 }
  - { offset: 0x1BEE5, size: 0x8, addend: 0x0, symName: __ZNSt3__128__exception_guard_exceptionsINS_29_AllocatorDestroyRangeReverseINS_9allocatorINS_4pairINS_12basic_stringIcNS_11char_traitsIcEENS2_IcEEEEN5units8quantityIdNS9_20angle_in_radians_tagEEEEEEEPSD_EEED2B8ne200100Ev, symObjAddr: 0xB120, symBinAddr: 0x10000E664, symSize: 0x34 }
  - { offset: 0x1C0CD, size: 0x8, addend: 0x0, symName: __ZNSt3__16vectorINS_4pairINS_12basic_stringIcNS_11char_traitsIcEENS_9allocatorIcEEEEN5units8quantityIfNS8_25temperature_in_kelvin_tagEEEEENS5_ISC_EEE16__init_with_sizeB8ne200100IPKSC_SH_EEvT_T0_m, symObjAddr: 0xB224, symBinAddr: 0x10000E698, symSize: 0x84 }
  - { offset: 0x1C233, size: 0x8, addend: 0x0, symName: __ZNSt3__135__uninitialized_allocator_copy_implB8ne200100INS_9allocatorINS_4pairINS_12basic_stringIcNS_11char_traitsIcEENS1_IcEEEEN5units8quantityIfNS8_25temperature_in_kelvin_tagEEEEEEEPKSC_SF_PSC_EET2_RT_T0_T1_SH_, symObjAddr: 0xB32C, symBinAddr: 0x10000E71C, symSize: 0xC8 }
  - { offset: 0x1C398, size: 0x8, addend: 0x0, symName: __ZNSt3__135__uninitialized_allocator_copy_implB8ne200100INS_9allocatorINS_4pairINS_12basic_stringIcNS_11char_traitsIcEENS1_IcEEEEN5units8quantityIfNS8_25temperature_in_kelvin_tagEEEEEEEPKSC_SF_PSC_EET2_RT_T0_T1_SH_, symObjAddr: 0xB32C, symBinAddr: 0x10000E71C, symSize: 0xC8 }
  - { offset: 0x1C3FD, size: 0x8, addend: 0x0, symName: __ZNSt3__128__exception_guard_exceptionsINS_29_AllocatorDestroyRangeReverseINS_9allocatorINS_4pairINS_12basic_stringIcNS_11char_traitsIcEENS2_IcEEEEN5units8quantityIfNS9_25temperature_in_kelvin_tagEEEEEEEPSD_EEED2B8ne200100Ev, symObjAddr: 0xB3F4, symBinAddr: 0x10000E7E4, symSize: 0x34 }
  - { offset: 0x1C5C1, size: 0x8, addend: 0x0, symName: __ZNSt3__13mapINS_12basic_stringIcNS_11char_traitsIcEENS_9allocatorIcEEEEfNS_4lessIS6_EENS4_INS_4pairIKS6_fEEEEEC2B8ne200100ESt16initializer_listISB_ERKS8_, symObjAddr: 0xB4F8, symBinAddr: 0x10000E818, symSize: 0x7C }
  - { offset: 0x1C69A, size: 0x8, addend: 0x0, symName: __ZNSt3__16__treeINS_12__value_typeINS_12basic_stringIcNS_11char_traitsIcEENS_9allocatorIcEEEEfEENS_19__map_value_compareIS7_S8_NS_4lessIS7_EELb1EEENS5_IS8_EEE30__emplace_hint_unique_key_argsIS7_JRKNS_4pairIKS7_fEEEEENSG_INS_15__tree_iteratorIS8_PNS_11__tree_nodeIS8_PvEElEEbEENS_21__tree_const_iteratorIS8_SP_lEERKT_DpOT0_, symObjAddr: 0xB574, symBinAddr: 0x10000E894, symSize: 0x80 }
  - { offset: 0x1C709, size: 0x8, addend: 0x0, symName: __ZNSt3__16__treeINS_12__value_typeINS_12basic_stringIcNS_11char_traitsIcEENS_9allocatorIcEEEEfEENS_19__map_value_compareIS7_S8_NS_4lessIS7_EELb1EEENS5_IS8_EEE12__find_equalIS7_EERPNS_16__tree_node_baseIPvEENS_21__tree_const_iteratorIS8_PNS_11__tree_nodeIS8_SH_EElEERPNS_15__tree_end_nodeISJ_EESK_RKT_, symObjAddr: 0xB5F4, symBinAddr: 0x10000E914, symSize: 0x190 }
  - { offset: 0x1C8F8, size: 0x8, addend: 0x0, symName: __ZNSt3__16__treeINS_12__value_typeINS_12basic_stringIcNS_11char_traitsIcEENS_9allocatorIcEEEEfEENS_19__map_value_compareIS7_S8_NS_4lessIS7_EELb1EEENS5_IS8_EEE16__construct_nodeIJRKNS_4pairIKS7_fEEEEENS_10unique_ptrINS_11__tree_nodeIS8_PvEENS_22__tree_node_destructorINS5_ISO_EEEEEEDpOT_, symObjAddr: 0xB784, symBinAddr: 0x10000EAA4, symSize: 0xA4 }
  - { offset: 0x1CC95, size: 0x8, addend: 0x0, symName: __ZNSt3__13mapIfNS_12basic_stringIcNS_11char_traitsIcEENS_9allocatorIcEEEENS_4lessIfEENS4_INS_4pairIKfS6_EEEEEC2B8ne200100ESt16initializer_listISB_ERKS8_, symObjAddr: 0xB9B4, symBinAddr: 0x10000EB48, symSize: 0x7C }
  - { offset: 0x1CD6E, size: 0x8, addend: 0x0, symName: __ZNSt3__16__treeINS_12__value_typeIfNS_12basic_stringIcNS_11char_traitsIcEENS_9allocatorIcEEEEEENS_19__map_value_compareIfS8_NS_4lessIfEELb1EEENS5_IS8_EEE30__emplace_hint_unique_key_argsIfJRKNS_4pairIKfS7_EEEEENSG_INS_15__tree_iteratorIS8_PNS_11__tree_nodeIS8_PvEElEEbEENS_21__tree_const_iteratorIS8_SP_lEERKT_DpOT0_, symObjAddr: 0xBA30, symBinAddr: 0x10000EBC4, symSize: 0x80 }
  - { offset: 0x1CDDD, size: 0x8, addend: 0x0, symName: __ZNSt3__16__treeINS_12__value_typeIfNS_12basic_stringIcNS_11char_traitsIcEENS_9allocatorIcEEEEEENS_19__map_value_compareIfS8_NS_4lessIfEELb1EEENS5_IS8_EEE12__find_equalIfEERPNS_16__tree_node_baseIPvEENS_21__tree_const_iteratorIS8_PNS_11__tree_nodeIS8_SH_EElEERPNS_15__tree_end_nodeISJ_EESK_RKT_, symObjAddr: 0xBAB0, symBinAddr: 0x10000EC44, symSize: 0x19C }
  - { offset: 0x1CDF2, size: 0x8, addend: 0x0, symName: __ZNSt3__16__treeINS_12__value_typeIfNS_12basic_stringIcNS_11char_traitsIcEENS_9allocatorIcEEEEEENS_19__map_value_compareIfS8_NS_4lessIfEELb1EEENS5_IS8_EEE12__find_equalIfEERPNS_16__tree_node_baseIPvEENS_21__tree_const_iteratorIS8_PNS_11__tree_nodeIS8_SH_EElEERPNS_15__tree_end_nodeISJ_EESK_RKT_, symObjAddr: 0xBAB0, symBinAddr: 0x10000EC44, symSize: 0x19C }
  - { offset: 0x1CE07, size: 0x8, addend: 0x0, symName: __ZNSt3__16__treeINS_12__value_typeIfNS_12basic_stringIcNS_11char_traitsIcEENS_9allocatorIcEEEEEENS_19__map_value_compareIfS8_NS_4lessIfEELb1EEENS5_IS8_EEE12__find_equalIfEERPNS_16__tree_node_baseIPvEENS_21__tree_const_iteratorIS8_PNS_11__tree_nodeIS8_SH_EElEERPNS_15__tree_end_nodeISJ_EESK_RKT_, symObjAddr: 0xBAB0, symBinAddr: 0x10000EC44, symSize: 0x19C }
  - { offset: 0x1D01E, size: 0x8, addend: 0x0, symName: __ZNSt3__16__treeINS_12__value_typeIfNS_12basic_stringIcNS_11char_traitsIcEENS_9allocatorIcEEEEEENS_19__map_value_compareIfS8_NS_4lessIfEELb1EEENS5_IS8_EEE16__construct_nodeIJRKNS_4pairIKfS7_EEEEENS_10unique_ptrINS_11__tree_nodeIS8_PvEENS_22__tree_node_destructorINS5_ISO_EEEEEEDpOT_, symObjAddr: 0xBC4C, symBinAddr: 0x10000EDE0, symSize: 0xA4 }
  - { offset: 0x1D29F, size: 0x8, addend: 0x0, symName: __ZNSt3__122__tree_node_destructorINS_9allocatorINS_11__tree_nodeINS_12__value_typeIfNS_12basic_stringIcNS_11char_traitsIcEENS1_IcEEEEEEPvEEEEEclB8ne200100EPSB_, symObjAddr: 0xBD44, symBinAddr: 0x10000EE84, symSize: 0x50 }
  - { offset: 0x1D4FD, size: 0x8, addend: 0x0, symName: __ZNSt3__16__treeINS_12__value_typeINS_12basic_stringIcNS_11char_traitsIcEENS_9allocatorIcEEEEiEENS_19__map_value_compareIS7_S8_NS_4lessIvEELb1EEENS5_IS8_EEE16__construct_nodeIJRKNS_21piecewise_construct_tENS_5tupleIJRKS7_EEENSJ_IJEEEEEENS_10unique_ptrINS_11__tree_nodeIS8_PvEENS_22__tree_node_destructorINS5_ISR_EEEEEEDpOT_, symObjAddr: 0xBFE8, symBinAddr: 0x10000F028, symSize: 0xA4 }
  - { offset: 0x1D7DE, size: 0x8, addend: 0x0, symName: __ZNKSt3__14lessIvEclB8ne200100IRKNS_12basic_stringIcNS_11char_traitsIcEENS_9allocatorIcEEEERKNS_17basic_string_viewIcS5_EEEEDTltclsr3stdE7forwardIT_Efp_Eclsr3stdE7forwardIT0_Efp0_EEOSF_OSG_, symObjAddr: 0xC1BC, symBinAddr: 0x10000F158, symSize: 0x5C }
  - { offset: 0x1D895, size: 0x8, addend: 0x0, symName: __ZNKSt3__14lessIvEclB8ne200100IRKNS_17basic_string_viewIcNS_11char_traitsIcEEEERKNS_12basic_stringIcS5_NS_9allocatorIcEEEEEEDTltclsr3stdE7forwardIT_Efp_Eclsr3stdE7forwardIT0_Efp0_EEOSF_OSG_, symObjAddr: 0xC218, symBinAddr: 0x10000F1B4, symSize: 0x5C }
  - { offset: 0x1D9DC, size: 0x8, addend: 0x0, symName: __ZNSt3__16vectorImNS_9allocatorImEEE11__vallocateB8ne200100Em, symObjAddr: 0xC47C, symBinAddr: 0x10000F3A0, symSize: 0x3C }
  - { offset: 0x1D9FE, size: 0x8, addend: 0x0, symName: __ZNSt3__115allocate_sharedB8ne200100INS_12basic_stringIcNS_11char_traitsIcEENS_9allocatorIcEEEENS4_IS6_EEJRKS6_ELi0EEENS_10shared_ptrIT_EERKT0_DpOT1_, symObjAddr: 0xC4B8, symBinAddr: 0x10000F3DC, symSize: 0x58 }
  - { offset: 0x1DA68, size: 0x8, addend: 0x0, symName: __ZNSt3__120__shared_ptr_emplaceINS_12basic_stringIcNS_11char_traitsIcEENS_9allocatorIcEEEENS4_IS6_EEEC2B8ne200100IJRKS6_ES7_Li0EEES7_DpOT_, symObjAddr: 0xC510, symBinAddr: 0x10000F434, symSize: 0x74 }
  - { offset: 0x1DB26, size: 0x8, addend: 0x0, symName: __ZNSt3__120__shared_ptr_emplaceINS_12basic_stringIcNS_11char_traitsIcEENS_9allocatorIcEEEENS4_IS6_EEED1Ev, symObjAddr: 0xC584, symBinAddr: 0x10000F4A8, symSize: 0x14 }
  - { offset: 0x1DB3B, size: 0x8, addend: 0x0, symName: __ZNSt3__120__shared_ptr_emplaceINS_12basic_stringIcNS_11char_traitsIcEENS_9allocatorIcEEEENS4_IS6_EEED1Ev, symObjAddr: 0xC584, symBinAddr: 0x10000F4A8, symSize: 0x14 }
  - { offset: 0x1DB52, size: 0x8, addend: 0x0, symName: __ZNSt3__120__shared_ptr_emplaceINS_12basic_stringIcNS_11char_traitsIcEENS_9allocatorIcEEEENS4_IS6_EEED0Ev, symObjAddr: 0xC598, symBinAddr: 0x10000F4BC, symSize: 0x24 }
  - { offset: 0x1DB93, size: 0x8, addend: 0x0, symName: __ZNSt3__120__shared_ptr_emplaceINS_12basic_stringIcNS_11char_traitsIcEENS_9allocatorIcEEEENS4_IS6_EEE16__on_zero_sharedEv, symObjAddr: 0xC5BC, symBinAddr: 0x10000F4E0, symSize: 0x14 }
  - { offset: 0x1DBE6, size: 0x8, addend: 0x0, symName: __ZNSt3__120__shared_ptr_emplaceINS_12basic_stringIcNS_11char_traitsIcEENS_9allocatorIcEEEENS4_IS6_EEE16__on_zero_sharedEv, symObjAddr: 0xC5BC, symBinAddr: 0x10000F4E0, symSize: 0x14 }
  - { offset: 0x1DC67, size: 0x8, addend: 0x0, symName: __ZNSt3__120__shared_ptr_emplaceINS_12basic_stringIcNS_11char_traitsIcEENS_9allocatorIcEEEENS4_IS6_EEE21__on_zero_shared_weakEv, symObjAddr: 0xC5D0, symBinAddr: 0x10000F4F4, symSize: 0x4 }
  - { offset: 0x1DC7C, size: 0x8, addend: 0x0, symName: __ZNSt3__120__shared_ptr_emplaceINS_12basic_stringIcNS_11char_traitsIcEENS_9allocatorIcEEEENS4_IS6_EEE21__on_zero_shared_weakEv, symObjAddr: 0xC5D0, symBinAddr: 0x10000F4F4, symSize: 0x4 }
  - { offset: 0x1DC90, size: 0x8, addend: 0x0, symName: __ZNSt3__120__shared_ptr_emplaceINS_12basic_stringIcNS_11char_traitsIcEENS_9allocatorIcEEEENS4_IS6_EEE21__on_zero_shared_weakEv, symObjAddr: 0xC5D0, symBinAddr: 0x10000F4F4, symSize: 0x4 }
  - { offset: 0x1DCA5, size: 0x8, addend: 0x0, symName: __ZNSt3__120__shared_ptr_emplaceINS_12basic_stringIcNS_11char_traitsIcEENS_9allocatorIcEEEENS4_IS6_EEE21__on_zero_shared_weakEv, symObjAddr: 0xC5D0, symBinAddr: 0x10000F4F4, symSize: 0x4 }
  - { offset: 0x1DCB9, size: 0x8, addend: 0x0, symName: __ZNSt3__120__shared_ptr_emplaceINS_12basic_stringIcNS_11char_traitsIcEENS_9allocatorIcEEEENS4_IS6_EEE21__on_zero_shared_weakEv, symObjAddr: 0xC5D0, symBinAddr: 0x10000F4F4, symSize: 0x4 }
  - { offset: 0x1DCD3, size: 0x8, addend: 0x0, symName: '__ZNSt3__110__function6__funcIZN10TextJsonIn5errorEiRKNS_12basic_stringIcNS_11char_traitsIcEENS_9allocatorIcEEEEE3$_0NS6_ISB_EEFvvEED1Ev', symObjAddr: 0xC6E8, symBinAddr: 0x10000F570, symSize: 0x4 }
  - { offset: 0x1DCE4, size: 0x8, addend: 0x0, symName: '__ZNSt3__110__function6__funcIZN10TextJsonIn5errorEiRKNS_12basic_stringIcNS_11char_traitsIcEENS_9allocatorIcEEEEE3$_0NS6_ISB_EEFvvEED0Ev', symObjAddr: 0xC6EC, symBinAddr: 0x10000F574, symSize: 0x4 }
  - { offset: 0x1DD1F, size: 0x8, addend: 0x0, symName: '__ZNKSt3__110__function6__funcIZN10TextJsonIn5errorEiRKNS_12basic_stringIcNS_11char_traitsIcEENS_9allocatorIcEEEEE3$_0NS6_ISB_EEFvvEE7__cloneEv', symObjAddr: 0xC6F0, symBinAddr: 0x10000F578, symSize: 0x34 }
  - { offset: 0x1DDD2, size: 0x8, addend: 0x0, symName: '__ZNKSt3__110__function6__funcIZN10TextJsonIn5errorEiRKNS_12basic_stringIcNS_11char_traitsIcEENS_9allocatorIcEEEEE3$_0NS6_ISB_EEFvvEE7__cloneEPNS0_6__baseISD_EE', symObjAddr: 0xC724, symBinAddr: 0x10000F5AC, symSize: 0x14 }
  - { offset: 0x1DDE7, size: 0x8, addend: 0x0, symName: '__ZNKSt3__110__function6__funcIZN10TextJsonIn5errorEiRKNS_12basic_stringIcNS_11char_traitsIcEENS_9allocatorIcEEEEE3$_0NS6_ISB_EEFvvEE7__cloneEPNS0_6__baseISD_EE', symObjAddr: 0xC724, symBinAddr: 0x10000F5AC, symSize: 0x14 }
  - { offset: 0x1DDFC, size: 0x8, addend: 0x0, symName: '__ZNKSt3__110__function6__funcIZN10TextJsonIn5errorEiRKNS_12basic_stringIcNS_11char_traitsIcEENS_9allocatorIcEEEEE3$_0NS6_ISB_EEFvvEE7__cloneEPNS0_6__baseISD_EE', symObjAddr: 0xC724, symBinAddr: 0x10000F5AC, symSize: 0x14 }
  - { offset: 0x1DE11, size: 0x8, addend: 0x0, symName: '__ZNKSt3__110__function6__funcIZN10TextJsonIn5errorEiRKNS_12basic_stringIcNS_11char_traitsIcEENS_9allocatorIcEEEEE3$_0NS6_ISB_EEFvvEE7__cloneEPNS0_6__baseISD_EE', symObjAddr: 0xC724, symBinAddr: 0x10000F5AC, symSize: 0x14 }
  - { offset: 0x1DE26, size: 0x8, addend: 0x0, symName: '__ZNKSt3__110__function6__funcIZN10TextJsonIn5errorEiRKNS_12basic_stringIcNS_11char_traitsIcEENS_9allocatorIcEEEEE3$_0NS6_ISB_EEFvvEE7__cloneEPNS0_6__baseISD_EE', symObjAddr: 0xC724, symBinAddr: 0x10000F5AC, symSize: 0x14 }
  - { offset: 0x1DE3A, size: 0x8, addend: 0x0, symName: '__ZNSt3__110__function6__funcIZN10TextJsonIn5errorEiRKNS_12basic_stringIcNS_11char_traitsIcEENS_9allocatorIcEEEEE3$_0NS6_ISB_EEFvvEE7destroyEv', symObjAddr: 0xC738, symBinAddr: 0x10000F5C0, symSize: 0x4 }
  - { offset: 0x1DE5D, size: 0x8, addend: 0x0, symName: '__ZNSt3__110__function6__funcIZN10TextJsonIn5errorEiRKNS_12basic_stringIcNS_11char_traitsIcEENS_9allocatorIcEEEEE3$_0NS6_ISB_EEFvvEE18destroy_deallocateEv', symObjAddr: 0xC73C, symBinAddr: 0x10000F5C4, symSize: 0x4 }
  - { offset: 0x1DE72, size: 0x8, addend: 0x0, symName: '__ZNSt3__110__function6__funcIZN10TextJsonIn5errorEiRKNS_12basic_stringIcNS_11char_traitsIcEENS_9allocatorIcEEEEE3$_0NS6_ISB_EEFvvEE18destroy_deallocateEv', symObjAddr: 0xC73C, symBinAddr: 0x10000F5C4, symSize: 0x4 }
  - { offset: 0x1DE87, size: 0x8, addend: 0x0, symName: '__ZNSt3__110__function6__funcIZN10TextJsonIn5errorEiRKNS_12basic_stringIcNS_11char_traitsIcEENS_9allocatorIcEEEEE3$_0NS6_ISB_EEFvvEE18destroy_deallocateEv', symObjAddr: 0xC73C, symBinAddr: 0x10000F5C4, symSize: 0x4 }
  - { offset: 0x1DE9B, size: 0x8, addend: 0x0, symName: '__ZNSt3__110__function6__funcIZN10TextJsonIn5errorEiRKNS_12basic_stringIcNS_11char_traitsIcEENS_9allocatorIcEEEEE3$_0NS6_ISB_EEFvvEE18destroy_deallocateEv', symObjAddr: 0xC73C, symBinAddr: 0x10000F5C4, symSize: 0x4 }
  - { offset: 0x1DECC, size: 0x8, addend: 0x0, symName: '__ZNSt3__110__function6__funcIZN10TextJsonIn5errorEiRKNS_12basic_stringIcNS_11char_traitsIcEENS_9allocatorIcEEEEE3$_0NS6_ISB_EEFvvEEclEv', symObjAddr: 0xC740, symBinAddr: 0x10000F5C8, symSize: 0x14 }
  - { offset: 0x1DF48, size: 0x8, addend: 0x0, symName: '__ZNKSt3__110__function6__funcIZN10TextJsonIn5errorEiRKNS_12basic_stringIcNS_11char_traitsIcEENS_9allocatorIcEEEEE3$_0NS6_ISB_EEFvvEE6targetERKSt9type_info', symObjAddr: 0xC754, symBinAddr: 0x10000F5DC, symSize: 0x3C }
  - { offset: 0x1DF94, size: 0x8, addend: 0x0, symName: '__ZNKSt3__110__function6__funcIZN10TextJsonIn5errorEiRKNS_12basic_stringIcNS_11char_traitsIcEENS_9allocatorIcEEEEE3$_0NS6_ISB_EEFvvEE11target_typeEv', symObjAddr: 0xC790, symBinAddr: 0x10000F618, symSize: 0xC }
  - { offset: 0x1DFF4, size: 0x8, addend: 0x0, symName: __ZNSt3__16vectorIbNS_9allocatorIbEEE11__vallocateB8ne200100Em, symObjAddr: 0xC920, symBinAddr: 0x10000F748, symSize: 0x44 }
  - { offset: 0x1E02B, size: 0x8, addend: 0x0, symName: __ZNSt3__16vectorIbNS_9allocatorIbEEE18__construct_at_endINS_14__bit_iteratorIS3_Lb0ELm0EEES6_EEvT_T0_m, symObjAddr: 0xC964, symBinAddr: 0x10000F78C, symSize: 0xA0 }
  - { offset: 0x1E035, size: 0x8, addend: 0x0, symName: __ZNSt3__16vectorIbNS_9allocatorIbEEE18__construct_at_endINS_14__bit_iteratorIS3_Lb0ELm0EEES6_EEvT_T0_m, symObjAddr: 0xC964, symBinAddr: 0x10000F78C, symSize: 0xA0 }
  - { offset: 0x1E16B, size: 0x8, addend: 0x0, symName: __ZNSt3__124__copy_move_unwrap_itersB8ne200100INS_11__copy_implENS_14__bit_iteratorINS_6vectorIbNS_9allocatorIbEEEELb0ELm0EEES7_S7_Li0EEENS_4pairIT0_T2_EES9_T1_SA_, symObjAddr: 0xCA04, symBinAddr: 0x10000F82C, symSize: 0x8C }
  - { offset: 0x1E3B6, size: 0x8, addend: 0x0, symName: __ZNKSt3__111__copy_implclB8ne200100INS_14__bit_iteratorINS_6vectorIbNS_9allocatorIbEEEELb0ELm0EEES7_S7_EENS_4pairIT_T1_EES9_T0_SA_, symObjAddr: 0xCA90, symBinAddr: 0x10000F8B8, symSize: 0xD0 }
  - { offset: 0x1E50B, size: 0x8, addend: 0x0, symName: __ZNSt3__16bitsetILm12EE23__init_from_string_viewB8ne200100IcNS_11char_traitsIcEEEEvNS_17basic_string_viewIT_T0_EES6_S6_, symObjAddr: 0xCBDC, symBinAddr: 0x10000FA04, symSize: 0xB8 }
  - { offset: 0x1E5F0, size: 0x8, addend: 0x0, symName: __ZNSt3__124__throw_invalid_argumentB8ne200100EPKc, symObjAddr: 0xCC94, symBinAddr: 0x10000FABC, symSize: 0x50 }
  - { offset: 0x1E636, size: 0x8, addend: 0x0, symName: __ZNSt3__113__fill_n_boolB8ne200100ILb0ENS_8__bitsetILm1ELm12EEEEEvNS_14__bit_iteratorIT0_Lb0EXLi0EEEENS_29__size_difference_type_traitsIS4_vE9size_typeE, symObjAddr: 0xCD08, symBinAddr: 0x10000FB30, symSize: 0xAC }
  - { offset: 0x1E65C, size: 0x8, addend: 0x0, symName: __ZNSt3__124__throw_invalid_argumentB8ne200100EPKc, symObjAddr: 0xCC94, symBinAddr: 0x10000FABC, symSize: 0x50 }
  - { offset: 0x1E67B, size: 0x8, addend: 0x0, symName: __ZNSt16invalid_argumentC1B8ne200100EPKc, symObjAddr: 0xCCE4, symBinAddr: 0x10000FB0C, symSize: 0x24 }
  - { offset: 0x1E8C9, size: 0x8, addend: 0x0, symName: __GLOBAL__sub_I_json.cpp, symObjAddr: 0xDB50, symBinAddr: 0x10000FC44, symSize: 0xCA4 }
...
